******************************************************************************
                  TI ARM Linker PC v20.2.5                     
******************************************************************************
>> Linked Fri Jan  7 15:58:00 2022

OUTPUT FILE NAME:   <TI_RTOS_IoT_GestureBasedWeatherTracking.out>
ENTRY POINT SYMBOL: "_c_int00"  address: 00013095


MEMORY CONFIGURATION

         name            origin    length      used     unused   attr    fill
----------------------  --------  ---------  --------  --------  ----  --------
  FLASH                 00000000   00100000  0001b47d  000e4b83  R  X
  SRAM                  20000000   00040000  0002b6b4  0001494c  RW X


SEGMENT ALLOCATION MAP

run origin  load origin   length   init length attrs members
----------  ----------- ---------- ----------- ----- -------
00000000    00000000    0001b488   0001b488    r-x
  00000000    00000000    0000003c   0000003c    r-- .resetVecs
  00000040    00000040    000181ea   000181ea    r-x .text
  00018230    00018230    00002d07   00002d07    r-- .const
  0001af38    0001af38    00000550   00000550    r-- .cinit
20000000    20000000    00000360   00000000    rw-
  20000000    20000000    00000360   00000000    rw- .vecs
20000380    20000380    0002b354   00000000    rw-
  20000380    20000380    000297b8   00000000    rw- .bss
  20029b38    20029b38    00001000   00000000    rw- .stack
  2002ab38    2002ab38    00000b9c   00000000    rw- .data


SECTION ALLOCATION MAP

 output                                  attributes/
section   page    origin      length       input sections
--------  ----  ----------  ----------   ----------------
.text      0    00000040    000181ea     
                  00000040    00000c68     stk.aem4f : tcpin.oem4f (.text:TcpInput)
                  00000ca8    00000a4e     rtsv7M4_T_le_v4SPD16_eabi.lib : _printfi.c.obj (.text:__TI_printfi)
                  000016f6    00000002     hal_userled_stub.aem4f : llled.oem4f (.text:LED_TOGGLE)
                  000016f8    000008b8     stk.aem4f : tcpout.oem4f (.text:TcpOutput)
                  00001fb0    00000478     sntp_ndk.aem4f : sntp.oem4f (.text:syncTime)
                  00002428    00000460     rtsv7M4_T_le_v4SPD16_eabi.lib : strtod.c.obj (.text:strtod)
                  00002888    00000430     sysbios.aem4f : BIOS.obj (.text:ti_sysbios_family_arm_m3_Hwi_excDumpRegs__I)
                  00002cb8    00000408     stk.aem4f : ipout.oem4f (.text:IPTxPacket)
                  000030c0    00000388     sntp_ndk.aem4f : sntp.oem4f (.text:SNTP_start)
                  00003448    00000384     stk.aem4f : ipin.oem4f (.text:IPRxPacket)
                  000037cc    00000372     nettool_ipv4.aem4f : dnscomn.oem4f (.text:DNSResolveByName)
                  00003b3e    00000002     stk.aem4f : nat.oem4f (.text:NatMsg)
                  00003b40    0000034c     ti.targets.arm.rtsarm.aem4f : System.oem4f (.text:xdc_runtime_System_doPrint__I)
                  00003e8c    00000308     main.obj (.text:httpTask)
                  00004194    000002fe     nettool_ipv4.aem4f : dnscomn.oem4f (.text:DNSResolveByAddr)
                  00004492    00000002     os.aem4f : task.oem4f (.text:_TaskInit)
                  00004494    000002f8     nettool_ipv4.aem4f : inetaddr.oem4f (.text:getaddrinfo)
                  0000478c    000002da                        : dnscomn.oem4f (.text:DNSResolveByNS)
                  00004a66    00000002     os.aem4f : task.oem4f (.text:_TaskShutdown)
                  00004a68    000002a0     rtsv7M4_T_le_v4SPD16_eabi.lib : mktime.c.obj (.text:__mktime32)
                  00004d08    00000284     stk.aem4f : sock.oem4f (.text:SockSet)
                  00004f8c    00000270     rtsv7M4_T_le_v4SPD16_eabi.lib : _printfi.c.obj (.text:_pconv_a)
                  000051fc    0000025e     stk.aem4f : fileuser.oem4f (.text:fdPoll)
                  0000545a    00000002     hal_ser_stub.aem4f : llserstb.oem4f (.text:_llSerialServiceCheck)
                  0000545c    0000024c     stk.aem4f : ipfrag.oem4f (.text:IPReasm)
                  000056a8    0000023c               : icmpin.oem4f (.text:ICMPInput)
                  000058e4    00000238               : udp.oem4f (.text:UdpInput)
                  00005b1c    00000204     Boot.aem4f : Boot_sysctl.oem4f (.text:ti_catalog_arm_cortexm4_tiva_ce_Boot_sysCtlClockFreqSetI__I)
                  00005d20    00000200     paj7620.obj (.text:paj7620Init)
                  00005f20    000001f4     stk.aem4f : sock.oem4f (.text:SockRecv)
                  00006114    00000004               : bind.oem4f (.text:BindGetIF)
                  00006118    000001f4     sysbios.aem4f : BIOS.obj (.text:ti_sysbios_family_arm_m3_Hwi_excHandlerMax__I)
                  0000630c    000001d0     rtsv7M4_T_le_v4SPD16_eabi.lib : _printfi.c.obj (.text:_pconv_g)
                  000064dc    000001b8     drivers_tivaware.aem4f : EMACSnow.oem4f (.text:EMACSnow_NIMUInit)
                  00006694    000001b6     rtsv7M4_T_le_v4SPD16_eabi.lib : fd_add_t2.asm.obj (.text)
                  0000684a    00000002     hal_ser_stub.aem4f : llserstb.oem4f (.text:_llSerialShutdown)
                  0000684c    000001b0     stk.aem4f : lliout.oem4f (.text:LLITxIpPacket)
                  000069fc    000001ac               : lliin.oem4f (.text:LLIRxPacket)
                  00006ba8    0000019c     os.aem4f : mem.oem4f (.text:mmAlloc)
                  00006d44    0000019a     nettool_ipv4.aem4f : dnsclnt.oem4f (.text:DNSResolve)
                  00006ede    00000002     hal_userled_stub.aem4f : llled.oem4f (.text:_llUserLedInit)
                  00006ee0    00000198     stk.aem4f : igmp.oem4f (.text:IGMPInput)
                  00007078    00000198     nettool_ipv4.aem4f : ipaddr.oem4f (.text:NtGetPublicHost)
                  00007210    00000190     stk.aem4f : sock.oem4f (.text:SockNew)
                  000073a0    00000186               : fileuser.oem4f (.text:fdSelect)
                  00007526    00000002     hal_userled_stub.aem4f : llled.oem4f (.text:_llUserLedShutdown)
                  00007528    00000174     netctrl_min_ipv4.aem4f : netctrl.oem4f (.text:NC_NetStart)
                  0000769c    00000174     main.obj (.text:startNTP)
                  00007810    00000174     sysbios.aem4f : BIOS.obj (.text:ti_sysbios_family_arm_m3_Hwi_excBusFault__I)
                  00007984    00000170     stk.aem4f : rtc.oem4f (.text:RTCReport)
                  00007af4    0000016c     nettool_ipv4.aem4f : dnscomn.oem4f (.text:DNSResolveExternal)
                  00007c60    0000016a     stk.aem4f : sb.oem4f (.text:SBRead)
                  00007dca    00000006     driverlib.lib : emac.obj (.text:EMACRxDMADescriptorListSet)
                  00007dd0    00000164     sysbios.aem4f : BIOS.obj (.text:ti_sysbios_family_arm_m3_Hwi_excUsageFault__I)
                  00007f34    00000160     stk.aem4f : sock.oem4f (.text:SockConnect)
                  00008094    00000158     nettool_ipv4.aem4f : dhcpmain.oem4f (.text:DHCPOpen)
                  000081ec    00000150     drivers_tivaware.aem4f : GPIOTiva.oem4f (.text:GPIO_setConfig)
                  0000833c    00000004     stk.aem4f : bind.oem4f (.text:BindGetNext)
                  00008340    00000150     sysbios.aem4f : BIOS.obj (.text:ti_sysbios_knl_Event_pend__E)
                  00008490    00000150                   : BIOS.obj (.text:ti_sysbios_knl_Task_Instance_finalize__E)
                  000085e0    00000148                   : BIOS.obj (.text:ti_sysbios_family_arm_m3_Hwi_excMemFault__I)
                  00008728    00000144     stk.aem4f : bind.oem4f (.text:BindNew)
                  0000886c    00000140               : tcp.oem4f (.text:TcpTimeoutCheck)
                  000089ac    0000013c     nettool_ipv4.aem4f : config.oem4f (.text:CfgAddEntry)
                  00008ae8    0000013c     stk.aem4f : sockint.oem4f (.text:SockNotify)
                  00008c24    0000013c               : sock.oem4f (.text:SockSend)
                  00008d60    0000013c     rtsv7M4_T_le_v4SPD16_eabi.lib : _printfi.c.obj (.text:_pconv_e)
                  00008e9c    00000004     http_ndk.aem4f : httpcli.oem4f (.text:HTTPCli_construct)
                  00008ea0    00000138     sysbios.aem4f : BIOS.obj (.text:ti_sysbios_knl_Semaphore_pend__E)
                  00008fd8    00000136     nettool_ipv4.aem4f : dnspkt.oem4f (.text:DNSGetReply)
                  0000910e    00000136     rtsv7M4_T_le_v4SPD16_eabi.lib : fd_div_t2.asm.obj (.text)
                  00009244    00000134     stk.aem4f : icmp.oem4f (.text:ICMPGenPacket)
                  00009378    00000134     rtsv7M4_T_le_v4SPD16_eabi.lib : localtim.c.obj (.text:__localtime32)
                  000094ac    00000132     nettool_ipv4.aem4f : dnspkt.oem4f (.text:DNSReadRecord)
                  000095de    00000130     driverlib.lib : gpio.obj (.text:GPIOPadConfigSet)
                  0000970e    00000002     rtsv7M4_T_le_v4SPD16_eabi.lib : _lock.c.obj (.text:_nop)
                  00009710    0000012c     EK_TM4C1294XL.obj (.text:EK_TM4C1294XL_initEMAC)
                  0000983c    00000128     http_ndk.aem4f : httpcli.oem4f (.text:contentHandler)
                  00009964    00000124     stk.aem4f : sockpcb.oem4f (.text:SockPcbResolve)
                  00009a88    00000124               : udp.oem4f (.text:UdpOutput)
                  00009bac    00000124     rtsv7M4_T_le_v4SPD16_eabi.lib : _printfi.c.obj (.text:fcvt)
                  00009cd0    00000124     main.obj (.text:sendData2Server)
                  00009df4    00000120     main_pem4f.oem4f (.text:ti_ndk_config_Global_stackThread)
                  00009f14    00000118     http_ndk.aem4f : httpcli.oem4f (.text:HTTPCli_connect)
                  0000a02c    00000118     stk.aem4f : tcpout.oem4f (.text:TcpGenPacket)
                  0000a144    00000118     ti.targets.arm.rtsarm.aem4f : Error.oem4f (.text:xdc_runtime_Error_policyDefault__E)
                  0000a25c    00000114     stk.aem4f : nimu.oem4f (.text:NIMUIoctl)
                  0000a370    00000114     main.obj (.text:paj7620Task)
                  0000a484    00000110     stk.aem4f : node.oem4f (.text:NodeTreeFree)
                  0000a594    00000110               : raw.oem4f (.text:RawInput)
                  0000a6a4    00000110     rtsv7M4_T_le_v4SPD16_eabi.lib : s_scalbn.c.obj (.text:scalbn)
                  0000a7b4    00000110                                   : strtoul.c.obj (.text:strtoul)
                  0000a8c4    0000010c     stk.aem4f : rtable.oem4f (.text:RtFind)
                  0000a9d0    0000010c     main.obj (.text:socketTask)
                  0000aadc    0000010a     stk.aem4f : route.oem4f (.text:RtCreate)
                  0000abe6    00000002     hal_ser_stub.aem4f : llserstb.oem4f (.text:llSerialService)
                  0000abe8    00000108     drivers_tivaware.aem4f : EMACSnow.oem4f (.text:EMACSnow_emacStart)
                  0000acf0    00000108     sysbios.aem4f : BIOS.obj (.text:ti_sysbios_family_arm_lm4_Timer_start__E)
                  0000adf8    00000106     http_ndk.aem4f : httpcli.oem4f (.text:HTTPCli_getResponseField)
                  0000aefe    00000002     rtsv7M4_T_le_v4SPD16_eabi.lib : div0.asm.obj (.text)
                  0000af00    00000104     os.aem4f : task.oem4f (.text:llEnter)
                  0000b004    00000102     nettool_ipv4.aem4f : dhcppkt.oem4f (.text:dhcpPacketProcess)
                  0000b106    00000102                        : inetaddr.oem4f (.text:inet_aton)
                  0000b208    00000100     stk.aem4f : igmp.oem4f (.text:IGMPSendReply)
                  0000b308    00000100     ti.targets.arm.rtsarm.aem4f : Core-mem.oem4f (.text:xdc_runtime_Core_createObject__I)
                  0000b408    000000fc     netctrl_min_ipv4.aem4f : netctrl.oem4f (.text:NetScheduler)
                  0000b504    000000fc     rtsv7M4_T_le_v4SPD16_eabi.lib : fd_mul_t2.asm.obj (.text)
                  0000b600    000000f8     stk.aem4f : pipe.oem4f (.text:PipeRecv)
                  0000b6f8    000000f8     ti.targets.arm.rtsarm.aem4f : Startup.oem4f (.text:xdc_runtime_Startup_startMods__I)
                  0000b7f0    000000f8     main_pem4f.oem4f (.text:xdc_runtime_System_printfExtend__I)
                  0000b8e8    000000f4     os.aem4f : task.oem4f (.text:TaskGetEnv)
                  0000b9dc    000000f4     sysbios.aem4f : m3_Hwi_asm.obj (.text:ti_sysbios_family_arm_m3_Hwi_dispatch__I)
                  0000bad0    000000f4                   : BIOS.obj (.text:ti_sysbios_knl_Task_Instance_init__E)
                  0000bbc4    000000f2     http_ndk.aem4f : httpcli.oem4f (.text:bufferedRecv)
                  0000bcb6    00000002     main_pem4f.oem4f (.text:ti_ndk_config_Global_NetworkClose)
                  0000bcb8    000000f0     stk.aem4f : lliout.oem4f (.text:LLIGenArpPacket)
                  0000bda8    000000f0               : sock.oem4f (.text:SockClose)
                  0000be98    000000ee     nettool_ipv4.aem4f : dnspkt.oem4f (.text:DNSWriteRecord)
                  0000bf86    00000002     main_pem4f.oem4f (.text:ti_ndk_config_Global_NetworkOpen)
                  0000bf88    000000ec     main.obj (.text:getTempTask)
                  0000c074    000000ec     http_ndk.aem4f : httpcli.oem4f (.text:redirect)
                  0000c160    000000ec     sysbios.aem4f : BIOS.obj (.text:ti_sysbios_knl_Task_postInit__I)
                  0000c24c    000000e8     os.aem4f : task.oem4f (.text:TaskSetEnv)
                  0000c334    000000e6     nettool_ipv4.aem4f : dnspkt.oem4f (.text:DNSWriteName)
                  0000c41a    00000002     main_pem4f.oem4f (.text:ti_sysbios_BIOS_nullFunc__I)
                  0000c41c    000000e6     http_ndk.aem4f : httpcli.oem4f (.text:HTTPCli_initSockAddr)
                  0000c502    00000002     main_pem4f.oem4f (.text:xdc_runtime_Startup_reset__I)
                  0000c504    000000e0     drivers_tivaware.aem4f : I2CTiva.oem4f (.text:I2CTiva_open)
                  0000c5e4    000000e0     stk.aem4f : tcptime.oem4f (.text:TcpTimeoutRexmt)
                  0000c6c4    000000dc               : sb.oem4f (.text:SBWrite)
                  0000c7a0    000000dc     nettool_ipv4.aem4f : dhcpsock.oem4f (.text:dhcpSocketOpen)
                  0000c87c    000000dc                        : dhcpsm.oem4f (.text:dhcpState)
                  0000c958    000000d8     stk.aem4f : node.oem4f (.text:NodeAdd)
                  0000ca30    000000d8               : tcpprot.oem4f (.text:TcpPrSetOption)
                  0000cb08    000000d6     drivers_tivaware.aem4f : I2CTiva.oem4f (.text:I2CTiva_hwiFxn)
                  0000cbde    00000002     --HOLE-- [fill = 0]
                  0000cbe0    000000d4                            : EMACSnow.oem4f (.text:EMACSnow_handleRx)
                  0000ccb4    000000d4     stk.aem4f : sockpcb.oem4f (.text:SockPcbBind)
                  0000cd88    000000d4     sysbios.aem4f : BIOS.obj (.text:ti_sysbios_heaps_HeapMem_alloc__E)
                  0000ce5c    000000d2     main.obj (.text:getLocalTime)
                  0000cf2e    00000002     --HOLE-- [fill = 0]
                  0000cf30    000000d1     stk.aem4f : nimu.oem4f (.text:NIMUReceivePacket)
                  0000d001    00000003     --HOLE-- [fill = 0]
                  0000d004    000000cc               : icmp.oem4f (.text:ICMPSendRtAdv)
                  0000d0d0    000000cc     nettool_ipv4.aem4f : dhcpbild.oem4f (.text:dhcpBuildHeader)
                  0000d19c    000000cc                        : dhcpsm.oem4f (.text:dhcpIPAdd)
                  0000d268    000000cc                        : dhcppkt.oem4f (.text:dhcpVerifyMessage)
                  0000d334    000000cc     ti.targets.arm.rtsarm.aem4f : Core-smem.oem4f (.text:xdc_runtime_Core_constructObject__I)
                  0000d400    000000c8     stk.aem4f : rawethsock.oem4f (.text:RawEthSockNew)
                  0000d4c8    000000c8     netctrl_min_ipv4.aem4f : netsrv.oem4f (.text:SPIpNet)
                  0000d590    000000c8     sysbios.aem4f : BIOS.obj (.text:ti_sysbios_knl_Task_sleep__E)
                  0000d658    000000c4     drivers_tivaware.aem4f : EMACSnow.oem4f (.text:EMACSnow_InitDMADescriptors)
                  0000d71c    000000c4     stk.aem4f : igmp.oem4f (.text:IGMPJoinHostGroup)
                  0000d7e0    000000c4     nettool_ipv4.aem4f : dhcpsm.oem4f (.text:StateBound)
                  0000d8a4    000000c4     http_ndk.aem4f : httpcli.oem4f (.text:getChunkedData)
                  0000d968    000000c2     nettool_ipv4.aem4f : dnspkt.oem4f (.text:DNSReadName)
                  0000da2a    00000002     --HOLE-- [fill = 0]
                  0000da2c    000000be                        : dnsclnt.oem4f (.text:DNSGetHostByName)
                  0000daea    000000bc     stk.aem4f : sockpcb.oem4f (.text:SockPcbFind)
                  0000dba6    00000002     --HOLE-- [fill = 0]
                  0000dba8    000000bc               : vlan.oem4f (.text:VLANDeinit)
                  0000dc64    000000bc     main.obj (.text:netIPAddrHook)
                  0000dd20    000000bc     sysbios.aem4f : BIOS.obj (.text:ti_sysbios_family_arm_m3_Hwi_excDebugMon__I)
                  0000dddc    00000004     driverlib.lib : i2c.obj (.text:I2CMasterControl)
                  0000dde0    000000bc     sysbios.aem4f : BIOS.obj (.text:ti_sysbios_family_arm_m3_Hwi_excHardFault__I)
                  0000de9c    00000004     driverlib.lib : i2c.obj (.text:I2CMasterDataGet)
                  0000dea0    000000bc     sysbios.aem4f : BIOS.obj (.text:ti_sysbios_knl_Task_exit__E)
                  0000df5c    000000b8     EK_TM4C1294XL.obj (.text:EK_TM4C1294XL_initGeneral)
                  0000e014    000000b8     stk.aem4f : icmpin.oem4f (.text:ICMPRevSrcRoute)
                  0000e0cc    000000b8               : lli.oem4f (.text:_LLITimeoutCheck)
                  0000e184    000000b4               : tcptime.oem4f (.text:TcpTimeoutKeep)
                  0000e238    000000b4     http_ndk.aem4f : httpcli.oem4f (.text:getStatus)
                  0000e2ec    00000004     driverlib.lib : i2c.obj (.text:I2CMasterDataPut)
                  0000e2f0    000000b4     sysbios.aem4f : BIOS.obj (.text:ti_sysbios_knl_Task_checkStacks__E)
                  0000e3a4    000000b1     rtsv7M4_T_le_v4SPD16_eabi.lib : _printfi.c.obj (.text:_ltostr)
                  0000e455    00000003     --HOLE-- [fill = 0]
                  0000e458    000000b1     nettool_ipv4.aem4f : inetaddr.oem4f (.text:createAddrInfo)
                  0000e509    00000001     --HOLE-- [fill = 0]
                  0000e50a    000000b0     stk.aem4f : rawethsock.oem4f (.text:RawEthSockSet)
                  0000e5ba    00000002     --HOLE-- [fill = 0]
                  0000e5bc    000000ac               : rtable.oem4f (.text:RtTimeoutCheck)
                  0000e668    000000ac     http_ndk.aem4f : httpcli.oem4f (.text:httpProxyTunnel)
                  0000e714    00000004     os.aem4f : ossys.oem4f (.text:NDK_vsprintf)
                  0000e718    000000ac     sysbios.aem4f : BIOS.obj (.text:ti_sysbios_family_arm_lm4_Timer_enableTiva__I)
                  0000e7c4    000000aa     network_ndk.aem4f : ssock.oem4f (.text:Ssock_send)
                  0000e86e    00000002     --HOLE-- [fill = 0]
                  0000e870    000000a8     stk.aem4f : sockint.oem4f (.text:SockCreatePacket)
                  0000e918    000000a4     sysbios.aem4f : BIOS.obj (.text:ti_sysbios_knl_Task_setPri__E)
                  0000e9bc    000000a0     stk.aem4f : ip.oem4f (.text:IPGetRoute)
                  0000ea5c    000000a0     auto_init.aem4f : auto_init.oem4f (.text)
                  0000eafc    000000a0     ti.targets.arm.rtsarm.aem4f : Text.oem4f (.text:xdc_runtime_Text_putMod__E)
                  0000eb9c    0000009e     stk.aem4f : nimu.oem4f (.text:NIMUAddEthernetHeader)
                  0000ec3a    0000009e     nettool_ipv4.aem4f : dhcpbild.oem4f (.text:dhcpBuildRequest)
                  0000ecd8    0000009c     stk.aem4f : exec.oem4f (.text:ExecOpen)
                  0000ed74    0000009c     main.obj (.text:getHumTask)
                  0000ee10    0000009c     rtsv7M4_T_le_v4SPD16_eabi.lib : memcpy_t2.asm.obj (.text)
                  0000eeac    0000009a     ti.targets.arm.rtsarm.aem4f : Text.oem4f (.text:xdc_runtime_Text_putSite__E)
                  0000ef46    00000002     --HOLE-- [fill = 0]
                  0000ef48    00000098     netctrl_min_ipv4.aem4f : netctrl.oem4f (.text:NC_SystemOpen)
                  0000efe0    00000098                            : netsrv.oem4f (.text:ServiceScan)
                  0000f078    00000098     Boot.aem4f : Boot.oem4f (.text:ti_catalog_arm_cortexm4_tiva_ce_Boot_sysCtlClockFreqSet__E)
                  0000f110    00000098     sysbios.aem4f : BIOS.obj (.text:ti_sysbios_knl_Task_schedule__I)
                  0000f1a8    00000096     rtsv7M4_T_le_v4SPD16_eabi.lib : ull_div_t2.asm.obj (.text)
                  0000f23e    00000002     --HOLE-- [fill = 0]
                  0000f240    00000094     nettool_ipv4.aem4f : config.oem4f (.text:CfgRemoveEntry)
                  0000f2d4    00000004     stk.aem4f : node.oem4f (.text:NodeSetRt)
                  0000f2d8    00000094     sysbios.aem4f : BIOS.obj (.text:ti_sysbios_family_arm_m3_Hwi_Instance_init__E)
                  0000f36c    00000004     stk.aem4f : rawethsock_prot.oem4f (.text:RawEthSockPrAttach)
                  0000f370    00000094     sysbios.aem4f : BIOS.obj (.text:ti_sysbios_family_arm_m3_Hwi_initNVIC__E)
                  0000f404    00000090     nettool_ipv4.aem4f : config.oem4f (.text:CfgExecute)
                  0000f494    00000090     stk.aem4f : igmp.oem4f (.text:IGMPMsg)
                  0000f524    00000090     os.aem4f : mem.oem4f (.text:mmBulkAlloc)
                  0000f5b4    00000090     http_ndk.aem4f : httpcli.oem4f (.text:readLine)
                  0000f644    00000004     stk.aem4f : rawethsock_prot.oem4f (.text:RawEthSockPrDetach)
                  0000f648    00000090     sysbios.aem4f : BIOS.obj (.text:ti_sysbios_knl_Task_Module_startup__E)
                  0000f6d8    00000090                   : BIOS.obj (.text:ti_sysbios_knl_Task_startCore__E)
                  0000f768    0000008c     nettool_ipv4.aem4f : dnscomn.oem4f (.text:DNSResolveQuery)
                  0000f7f4    0000008c     drivers_tivaware.aem4f : GPIOTiva.oem4f (.text:GPIO_init)
                  0000f880    0000008c     stk.aem4f : ip.oem4f (.text:IPMsg)
                  0000f90c    0000008c     os.aem4f : mem.oem4f (.text:_mmInit)
                  0000f998    0000008c              : mem.oem4f (.text:mmInitPage)
                  0000fa24    0000008c     sysbios.aem4f : m3_TaskSupport_asm.obj (.text:ti_sysbios_family_arm_m3_TaskSupport_buildTaskStack)
                  0000fab0    0000008c                   : BIOS.obj (.text:ti_sysbios_knl_Event_post__E)
                  0000fb3c    0000008a     netctrl_min_ipv4.aem4f : netsrv.oem4f (.text:SPRoute)
                  0000fbc6    00000002     --HOLE-- [fill = 0]
                  0000fbc8    00000088                            : netsrv.oem4f (.text:ServiceSpawn)
                  0000fc50    00000088     stk.aem4f : sockpcb.oem4f (.text:SockPcbCtlError)
                  0000fcd8    00000087     main_pem4f.oem4f (.text:ti_ndk_config_Global_NetworkIPAddr)
                  0000fd5f    00000001     --HOLE-- [fill = 0]
                  0000fd60    00000086     stk.aem4f : sock.oem4f (.text:SockCheck)
                  0000fde6    00000086     nettool_ipv4.aem4f : dhcpsm.oem4f (.text:StateRequesting)
                  0000fe6c    00000086     rtsv7M4_T_le_v4SPD16_eabi.lib : fd_cmp_t2.asm.obj (.text:__aeabi_cdcmple)
                  0000fef2    00000086                                   : fd_cmp_t2.asm.obj (.text:__aeabi_cdrcmple)
                  0000ff78    00000084     nettool_ipv4.aem4f : config.oem4f (.text:CfgGetEntry)
                  0000fffc    00000084     drivers_tivaware.aem4f : EMACSnow.oem4f (.text:EMACSnow_processPhyInterrupt)
                  00010080    00000084     stk.aem4f : tcpprot.oem4f (.text:TcpPrAttach)
                  00010104    00000084     os.aem4f : mem.oem4f (.text:mmBulkFree)
                  00010188    00000084              : mem.oem4f (.text:mmFree)
                  0001020c    00000004              : semaphore.oem4f (.text:SemPend)
                  00010210    00000084     sysbios.aem4f : BIOS.obj (.text:ti_sysbios_family_arm_m3_Hwi_postInit__I)
                  00010294    00000082     nettool_ipv4.aem4f : dhcpsm.oem4f (.text:StateRenewRebind)
                  00010316    00000002     --HOLE-- [fill = 0]
                  00010318    00000080     drivers_tivaware.aem4f : EMACSnow.oem4f (.text:EMACSnow_emacStop)
                  00010398    00000080                            : EMACSnow.oem4f (.text:EMACSnow_processPendingTx)
                  00010418    00000080     stk.aem4f : lli.oem4f (.text:LLINew)
                  00010498    00000080     netctrl_min_ipv4.aem4f : netsrv.oem4f (.text:NS_BootTask)
                  00010518    00000080     stk.aem4f : pbm.oem4f (.text:PBM_alloc)
                  00010598    00000080               : raw.oem4f (.text:RawOutput)
                  00010618    00000080     main.obj (.text:parseString)
                  00010698    0000007e     drivers_tivaware.aem4f : I2CTiva.oem4f (.text:I2CTiva_transfer)
                  00010716    0000007e     stk.aem4f : fileuser.oem4f (.text:fdClose)
                  00010794    0000007c     nettool_ipv4.aem4f : config.oem4f (.text:CfgGetNextEntry)
                  00010810    0000007c     drivers_tivaware.aem4f : EMACSnow.oem4f (.text:EMACSnow_hwiIntFxn)
                  0001088c    0000007c     stk.aem4f : igmp.oem4f (.text:IGMPDoMCast)
                  00010908    0000007c               : igmp.oem4f (.text:IGMPJoin)
                  00010984    0000007c               : socket.oem4f (.text:NDK_setsockopt)
                  00010a00    0000007c               : nimu.oem4f (.text:NIMURegister)
                  00010a7c    0000007c               : pbm.oem4f (.text:PBM_free)
                  00010af8    0000007c     nettool_ipv4.aem4f : inetaddr.oem4f (.text:inet_pton)
                  00010b74    00000004     os.aem4f : semaphore.oem4f (.text:SemPost)
                  00010b78    0000007c     sysbios.aem4f : BIOS.obj (.text:ti_sysbios_heaps_HeapMem_free__E)
                  00010bf4    0000007a     rtsv7M4_T_le_v4SPD16_eabi.lib : memset_t2.asm.obj (.text)
                  00010c6e    00000002     --HOLE-- [fill = 0]
                  00010c70    00000078     driverlib.lib : emac.obj (.text:EMACInit)
                  00010ce8    00000078     stk.aem4f : socket.oem4f (.text:NDK_sendto)
                  00010d60    00000078               : tcptime.oem4f (.text:TcpXmitTimer)
                  00010dd8    00000078               : fileuser.oem4f (.text:fdOpenSession)
                  00010e50    00000078     os.aem4f : task.oem4f (.text:llExit)
                  00010ec8    00000077     paj7620.obj (.text:paj7620WriteReg)
                  00010f3f    00000001     --HOLE-- [fill = 0]
                  00010f40    00000076     stk.aem4f : pipe.oem4f (.text:PipeSend)
                  00010fb6    00000002     --HOLE-- [fill = 0]
                  00010fb8    00000075               : tcptime.oem4f (.text:TcpTimeoutSackRexmt)
                  0001102d    00000003     --HOLE-- [fill = 0]
                  00011030    00000074               : igmp.oem4f (.text:IGMPLeaveHostGroup)
                  000110a4    00000074               : nimu.oem4f (.text:NIMUShutdown)
                  00011118    00000074               : raweth.oem4f (.text:RawEthRxPacket)
                  0001118c    00000074               : sockpcb.oem4f (.text:SockPcbConnect)
                  00011200    00000074     nettool_ipv4.aem4f : inetaddr.oem4f (.text:setAddrInfo)
                  00011274    00000072     os.aem4f : semaphore.oem4f (.text:SemCreateBinary)
                  000112e6    00000002     --HOLE-- [fill = 0]
                  000112e8    00000070     http_ndk.aem4f : httpcli.oem4f (.text:HTTPCli_sendRequest)
                  00011358    00000070     stk.aem4f : socket.oem4f (.text:NDK_send)
                  000113c8    00000070               : rtable.oem4f (.text:RtFlush)
                  00011438    00000070     netctrl_min_ipv4.aem4f : netsrv.oem4f (.text:SPConfig)
                  000114a8    00000070     stk.aem4f : sock.oem4f (.text:SockShutdown)
                  00011518    00000070     nettool_ipv4.aem4f : dhcptags.oem4f (.text:dhcpDecodeType)
                  00011588    00000070     sysbios.aem4f : BIOS.obj (.text:ti_sysbios_knl_Clock_workFunc__E)
                  000115f8    0000006e     stk.aem4f : socket.oem4f (.text:NDK_recv)
                  00011666    00000002     --HOLE-- [fill = 0]
                  00011668    0000006e               : rtable.oem4f (.text:RtWalkNext)
                  000116d6    0000006e               : sockpcb.oem4f (.text:SockPcbFindRaw)
                  00011744    0000006e     rtsv7M4_T_le_v4SPD16_eabi.lib : _printfi.c.obj (.text:_mcpy)
                  000117b2    0000006e                                   : fd_tos_t2.asm.obj (.text)
                  00011820    0000006e                                   : ll_div_t2.asm.obj (.text)
                  0001188e    00000002     --HOLE-- [fill = 0]
                  00011890    0000006d     stk.aem4f : node.oem4f (.text:NodeNew)
                  000118fd    00000003     --HOLE-- [fill = 0]
                  00011900    0000006d     ti.targets.arm.rtsarm.aem4f : System.oem4f (.text:xdc_runtime_System_formatNum__I)
                  0001196d    00000003     --HOLE-- [fill = 0]
                  00011970    0000006c     os.aem4f : ossys.oem4f (.text:DbgPrintf)
                  000119dc    0000006c     stk.aem4f : node.oem4f (.text:NodeTreeNew)
                  00011a48    0000006c               : raweth.oem4f (.text:RawEthTxPacket)
                  00011ab4    0000006c               : udp.oem4f (.text:UdpChecksum)
                  00011b20    0000006c     rtsv7M4_T_le_v4SPD16_eabi.lib : asctime.c.obj (.text:asctime)
                  00011b8c    0000006c     http_ndk.aem4f : httpcli.oem4f (.text:checkContentField)
                  00011bf8    0000006c     main_pem4f.oem4f (.text:ti_ndk_config_ip_init)
                  00011c64    00000004     os.aem4f : semaphore.oem4f (.text:SemReset)
                  00011c68    0000006c     sysbios.aem4f : BIOS.obj (.text:ti_sysbios_knl_Swi_restoreHwi__E)
                  00011cd4    0000006c     ti.targets.arm.rtsarm.aem4f : Error.oem4f (.text:xdc_runtime_Error_print__E)
                  00011d40    0000006c                                 : Memory.oem4f (.text:xdc_runtime_Memory_alloc__E)
                  00011dac    0000006a     stk.aem4f : tcpprot.oem4f (.text:TcpPrInherit)
                  00011e16    00000002     --HOLE-- [fill = 0]
                  00011e18    00000068     EK_TM4C1294XL.obj (.text:EK_TM4C1294XL_initI2C)
                  00011e80    00000068     stk.aem4f : socket.oem4f (.text:NDK_socket)
                  00011ee8    00000068               : pbm.oem4f (.text:PBM_open)
                  00011f50    00000068               : rtable.oem4f (.text:_RtNodeInsert)
                  00011fb8    00000068     rtsv7M4_T_le_v4SPD16_eabi.lib : copy_decompress_lzss.c.obj (.text:decompress:lzss:__TI_decompress_lzss)
                  00012020    00000068     sntp_ndk.aem4f : sntp.oem4f (.text:socketSetup)
                  00012088    00000066     ti.targets.arm.rtsarm.aem4f : Core-mem.oem4f (.text:xdc_runtime_Core_deleteObject__I)
                  000120ee    00000002     --HOLE-- [fill = 0]
                  000120f0    00000064     nettool_ipv4.aem4f : config.oem4f (.text:CfgFree)
                  00012154    00000064     drivers_tivaware.aem4f : GPIOTiva.oem4f (.text:GPIO_hwiIntFxn)
                  000121b8    00000064     stk.aem4f : pbm.oem4f (.text:PBMQ_enq)
                  0001221c    00000064               : sockint.oem4f (.text:SockSpawnAbort)
                  00012280    00000064     rtsv7M4_T_le_v4SPD16_eabi.lib : s_frexp.c.obj (.text:frexp)
                  000122e4    00000064     hal_timer_bios.aem4f : lltimer.oem4f (.text:llTimerTick)
                  00012348    00000064     sysbios.aem4f : BIOS.obj (.text:ti_sysbios_family_arm_lm4_Timer_Module_startup__E)
                  000123ac    00000064     main_pem4f.oem4f (.text:ti_sysbios_family_arm_m3_Hwi_create)
                  00012410    00000064     sysbios.aem4f : BIOS.obj (.text:ti_sysbios_family_arm_m3_Hwi_dispatchC__I)
                  00012474    00000004     network_ndk.aem4f : ssock.oem4f (.text:Ssock_getSocket)
                  00012478    00000064     sysbios.aem4f : BIOS.obj (.text:ti_sysbios_knl_Semaphore_post__E)
                  000124dc    00000064     stk.aem4f : lliin.oem4f (.text:updateRtTable)
                  00012540    00000062     drivers_tivaware.aem4f : I2CTiva.oem4f (.text:I2CTiva_primeTransfer)
                  000125a2    00000062     stk.aem4f : ipin.oem4f (.text:IPRouteIP)
                  00012604    00000062               : sb.oem4f (.text:SBNew)
                  00012666    00000002     --HOLE-- [fill = 0]
                  00012668    00000060     nettool_ipv4.aem4f : config.oem4f (.text:CfgGetEntryCnt)
                  000126c8    00000060     stk.aem4f : file.oem4f (.text:FdWaitEvent)
                  00012728    00000060               : nimu.oem4f (.text:NIMUUnregister)
                  00012788    00000060               : node.oem4f (.text:NodeFind)
                  000127e8    00000060               : rtc.oem4f (.text:RTCMsg)
                  00012848    00000060               : tcp.oem4f (.text:TcpChecksum)
                  000128a8    00000060     nettool_ipv4.aem4f : dhcptags.oem4f (.text:dhcpBuildOptions)
                  00012908    00000060     main_pem4f.oem4f (.text:ti_ndk_config_Global_serviceReport)
                  00012968    0000005e     stk.aem4f : route.oem4f (.text:RtRemove)
                  000129c6    0000005e     nettool_ipv4.aem4f : dhcpsm.oem4f (.text:StateSelecting)
                  00012a24    0000005e     stk.aem4f : vlan.oem4f (.text:VLANReceivePacket)
                  00012a82    00000002     --HOLE-- [fill = 0]
                  00012a84    0000005c     nettool_ipv4.aem4f : config.oem4f (.text:CfgSetExecuteOrder)
                  00012ae0    0000005c     stk.aem4f : nimu.oem4f (.text:NIMUIoctlSpecialCmd)
                  00012b3c    0000005c     netctrl_min_ipv4.aem4f : netsrv.oem4f (.text:SPService)
                  00012b98    0000005c     paj7620.obj (.text:paj7620ReadReg)
                  00012bf4    0000005c     main_pem4f.oem4f (.text:ti_sysbios_knl_Swi_create)
                  00012c50    0000005c     sysbios.aem4f : BIOS.obj (.text:ti_sysbios_knl_Swi_run__I)
                  00012cac    00000004     os.aem4f : task.oem4f (.text:TaskSelf)
                  00012cb0    0000005c     sysbios.aem4f : BIOS.obj (.text:ti_sysbios_knl_Swi_schedule__I)
                  00012d0c    0000005c     main_pem4f.oem4f (.text:ti_sysbios_knl_Task_create)
                  00012d68    0000005c     sysbios.aem4f : BIOS.obj (.text:ti_sysbios_knl_Task_unblockI__E)
                  00012dc4    0000005b     ti.targets.arm.rtsarm.aem4f : Text.oem4f (.text:xdc_runtime_Text_putLab__E)
                  00012e1f    00000001     --HOLE-- [fill = 0]
                  00012e20    0000005a     stk.aem4f : rawethsock.oem4f (.text:RawEthSockCheck)
                  00012e7a    0000005a               : route.oem4f (.text:RtRedirect)
                  00012ed4    0000005a               : tcpprot.oem4f (.text:TcpValidateMetrics)
                  00012f2e    0000005a     nettool_ipv4.aem4f : dhcpbild.oem4f (.text:dhcpBuildDecline)
                  00012f88    0000005a     os.aem4f : mem.oem4f (.text:mmCopy)
                  00012fe2    0000005a     main_pem4f.oem4f (.text:ti_ndk_config_tcp_init)
                  0001303c    00000058     stk.aem4f : bind.oem4f (.text:BindFree)
                  00013094    00000058     boot.aem4f : boot.oem4f (.text)
                  000130ec    00000058     driverlib.lib : emac.obj (.text:EMACPHYConfigSet)
                  00013144    00000058     rtsv7M4_T_le_v4SPD16_eabi.lib : hostwrite.c.obj (.text:HOSTwrite)
                  0001319c    00000058     stk.aem4f : igmp.oem4f (.text:IGMPTimer)
                  000131f4    00000058     os.aem4f : semaphore.oem4f (.text:SemCreate)
                  0001324c    00000058     paj7620.obj (.text:paj7620SelectBank)
                  000132a4    00000058     main_pem4f.oem4f (.text:ti_sysbios_family_arm_m3_Hwi_construct)
                  000132fc    00000058     sysbios.aem4f : m3_Hwi_asm_switch.obj (.text:ti_sysbios_family_arm_m3_Hwi_initStacks__E)
                  00013354    00000056     driverlib.lib : gpio.obj (.text:GPIOIntTypeSet)
                  000133aa    00000056     rtsv7M4_T_le_v4SPD16_eabi.lib : _printfi.c.obj (.text:_pconv_f)
                  00013400    00000056     http_ndk.aem4f : httpcli.oem4f (.text:sprsend)
                  00013456    00000002     --HOLE-- [fill = 0]
                  00013458    00000054     nettool_ipv4.aem4f : config.oem4f (.text:CfgEntryDeRef)
                  000134ac    00000054     http_ndk.aem4f : httpcli.oem4f (.text:HTTPCli_sendField)
                  00013500    00000054     stk.aem4f : igmp.oem4f (.text:IGMPLeave)
                  00013554    00000054               : rawethsock_pcb.oem4f (.text:RawEthSockPcbAttach)
                  000135a8    00000054     sntp_ndk.aem4f : sntp.oem4f (.text:SNTP_setServers)
                  000135fc    00000054     stk.aem4f : sockpcb.oem4f (.text:SockCleanPcb)
                  00013650    00000054               : tcptime.oem4f (.text:TcpTimeoutPersist)
                  000136a4    00000054     rtsv7M4_T_le_v4SPD16_eabi.lib : _ltoa.c.obj (.text:__TI_ltoa)
                  000136f8    00000054     http_ndk.aem4f : httpcli.oem4f (.text:asyncThread)
                  0001374c    00000004     os.aem4f : task.oem4f (.text:TaskSetPri)
                  00013750    00000054     sysbios.aem4f : BIOS.obj (.text:ti_sysbios_family_arm_lm4_Timer_initDevice__I)
                  000137a4    00000004     hal_ser_stub.aem4f : llserstb.oem4f (.text:_llSerialInit)
                  000137a8    00000054     sysbios.aem4f : BIOS.obj (.text:ti_sysbios_knl_Swi_Instance_init__E)
                  000137fc    00000054     ti.targets.arm.rtsarm.aem4f : Assert.oem4f (.text:xdc_runtime_Assert_raise__I)
                  00013850    00000052     nettool_ipv4.aem4f : dnscomn.oem4f (.text:DNSReplyFree)
                  000138a2    00000052     stk.aem4f : tcpprot.oem4f (.text:TcpPrDetach)
                  000138f4    00000052     rtsv7M4_T_le_v4SPD16_eabi.lib : _printfi.c.obj (.text:_ecpy)
                  00013946    00000002     --HOLE-- [fill = 0]
                  00013948    00000050     drivers_tivaware.aem4f : GPIOTiva.oem4f (.text:GPIO_setCallback)
                  00013998    00000050                            : GPIOTiva.oem4f (.text:GPIO_write)
                  000139e8    00000050     stk.aem4f : socket.oem4f (.text:NDK_bind)
                  00013a38    00000050               : socket.oem4f (.text:NDK_connect)
                  00013a88    00000050               : route.oem4f (.text:RtNew)
                  00013ad8    00000050     driverlib.lib : sysctl.obj (.text:SysCtlPeripheralReset)
                  00013b28    00000050     Boot.aem4f : Boot_sysctl.oem4f (.text:_SysCtlFrequencyGet)
                  00013b78    00000050     sysbios.aem4f : BIOS.obj (.text:ti_sysbios_family_arm_m3_Hwi_Module_startup__E)
                  00013bc8    00000050                   : BIOS.obj (.text:ti_sysbios_knl_Clock_Instance_init__E)
                  00013c18    00000050     ti.targets.arm.rtsarm.aem4f : Startup.oem4f (.text:xdc_runtime_Startup_exec__E)
                  00013c68    00000050                                 : Text.oem4f (.text:xdc_runtime_Text_visitRope2__I)
                  00013cb8    0000004e     stk.aem4f : node.oem4f (.text:NodeDeRef)
                  00013d06    0000004e     nettool_ipv4.aem4f : config.oem4f (.text:_CfgEntryScan)
                  00013d54    0000004d     sntp_ndk.aem4f : sntp.oem4f (.text:hasKissCode)
                  00013da1    00000003     --HOLE-- [fill = 0]
                  00013da4    0000004c     nettool_ipv4.aem4f : ipaddr.oem4f (.text:NtAddNetwork)
                  00013df0    0000004c     stk.aem4f : sockint.oem4f (.text:SockValidateRoute)
                  00013e3c    0000004c     rtsv7M4_T_le_v4SPD16_eabi.lib : atoi.c.obj (.text:atoi)
                  00013e88    0000004c                                   : cpy_tbl.c.obj (.text:copy_in)
                  00013ed4    0000004c                                   : snprintf.c.obj (.text:snprintf)
                  00013f20    0000004c     sysbios.aem4f : BIOS.obj (.text:ti_sysbios_heaps_HeapMem_getStats__E)
                  00013f6c    00000004     rtsv7M4_T_le_v4SPD16_eabi.lib : exit.c.obj (.text:abort:abort)
                  00013f70    0000004c     sysbios.aem4f : BIOS.obj (.text:ti_sysbios_knl_Swi_runLoop__I)
                  00013fbc    00000004     stk.aem4f : listlib.oem4f (.text:list_get_head)
                  00013fc0    0000004c     sysbios.aem4f : BIOS.obj (.text:ti_sysbios_knl_Task_allBlockedFunction__I)
                  0001400c    0000004a     netctrl_min_ipv4.aem4f : netsrv.oem4f (.text:ServiceKill)
                  00014056    0000004a     stk.aem4f : sock.oem4f (.text:SockDisconnect)
                  000140a0    0000004a               : timer.oem4f (.text:TimerNew)
                  000140ea    00000002     --HOLE-- [fill = 0]
                  000140ec    0000004a     main.obj (.text:main)
                  00014136    00000048     nettool_ipv4.aem4f : config.oem4f (.text:CfgNew)
                  0001417e    00000002     --HOLE-- [fill = 0]
                  00014180    00000048     driverlib.lib : gpio.obj (.text:GPIOPinConfigure)
                  000141c8    00000048                   : i2c.obj (.text:I2CMasterInitExpClk)
                  00014210    00000048     stk.aem4f : lli.oem4f (.text:LLIMsg)
                  00014258    00000048               : node.oem4f (.text:NodeWalk)
                  000142a0    00000048               : rawethsock_pcb.oem4f (.text:RawEthSockPcbDetach)
                  000142e8    00000048               : sockpcb.oem4f (.text:SockPcbResolveChain)
                  00014330    00000048               : tcpprot.oem4f (.text:TcpDrop)
                  00014378    00000048               : lli.oem4f (.text:_LLIExpListInsert)
                  000143c0    00000048               : rtable.oem4f (.text:_RtExpListInsert)
                  00014408    00000048               : file.oem4f (.text:fdint_lockfd)
                  00014450    00000048     rtsv7M4_T_le_v4SPD16_eabi.lib : fd_toi_t2.asm.obj (.text)
                  00014498    00000048     sysbios.aem4f : BIOS.obj (.text:ti_sysbios_family_arm_lm4_Timer_enableTimers__I)
                  000144e0    00000048                   : BIOS.obj (.text:ti_sysbios_family_arm_m3_Hwi_disableInterrupt__E)
                  00014528    00000048                   : BIOS.obj (.text:ti_sysbios_family_arm_m3_Hwi_enableInterrupt__E)
                  00014570    00000048                   : BIOS.obj (.text:ti_sysbios_family_arm_m3_Hwi_excReserved__I)
                  000145b8    00000048                   : BIOS.obj (.text:ti_sysbios_knl_Task_deleteTerminatedTasksFunc__I)
                  00014600    00000046     nettool_ipv4.aem4f : ipaddr.oem4f (.text:NtIfIdx2Ip)
                  00014646    00000046     stk.aem4f : rawethsock.oem4f (.text:RawEthSockSend)
                  0001468c    00000046               : tcpprot.oem4f (.text:TcpPrCtlError)
                  000146d2    00000046     os.aem4f : mem.oem4f (.text:mmZeroInit)
                  00014718    00000046     ti.targets.arm.rtsarm.aem4f : Core-params.oem4f (.text:xdc_runtime_Core_assignParams__I)
                  0001475e    00000002     --HOLE-- [fill = 0]
                  00014760    00000044     drivers_tivaware.aem4f : EMACSnow.oem4f (.text:EMACSnow_processTransmitted)
                  000147a4    00000044     stk.aem4f : icmp.oem4f (.text:ICMPChecksum)
                  000147e8    00000044               : ipfrag.oem4f (.text:IPReasmFree)
                  0001482c    00000044               : lli.oem4f (.text:LLIGetValidTime)
                  00014870    00000044               : rtable.oem4f (.text:RouteMsg)
                  000148b4    00000044               : rtable.oem4f (.text:RtWalkEnd)
                  000148f8    00000044               : sockpcb.oem4f (.text:SockPcbDetach)
                  0001493c    00000044               : timer.oem4f (.text:TimerListInsert)
                  00014980    00000044     hal_timer_bios.aem4f : lltimer.oem4f (.text:llTimerGetTime)
                  000149c4    00000004     stk.aem4f : listlib.oem4f (.text:list_get_next)
                  000149c8    00000044     sysbios.aem4f : BIOS.obj (.text:ti_sysbios_family_arm_lm4_Timer_isrStub__E)
                  00014a0c    00000004     http_ndk.aem4f : httpcli.oem4f (.text:threadExit)
                  00014a10    00000044     sysbios.aem4f : BIOS.obj (.text:ti_sysbios_family_arm_m3_Hwi_getStackInfo__E)
                  00014a54    00000004     main_pem4f.oem4f (.text:ti_sysbios_BIOS_RtsGateProxy_enter__E)
                  00014a58    00000044     sysbios.aem4f : BIOS.obj (.text:ti_sysbios_knl_Swi_post__E)
                  00014a9c    00000044     ti.targets.arm.rtsarm.aem4f : Error.oem4f (.text:xdc_runtime_Error_setX__E)
                  00014ae0    00000044                                 : SysMin.oem4f (.text:xdc_runtime_SysMin_flush__E)
                  00014b24    00000044                                 : Text.oem4f (.text:xdc_runtime_Text_xprintf__I)
                  00014b68    00000042     stk.aem4f : tcpprot.oem4f (.text:TcpPrSendOOB)
                  00014baa    00000042               : fileuser.oem4f (.text:fdCloseSession)
                  00014bec    00000040     nettool_ipv4.aem4f : dnspkt.oem4f (.text:DNSBuildRequest)
                  00014c2c    00000040     http_ndk.aem4f : httpcli.oem4f (.text:HTTPCli_readResponseBody)
                  00014c6c    00000040     stk.aem4f : lliin.oem4f (.text:LLIValidateRoute)
                  00014cac    00000040               : pbm.oem4f (.text:PBM_copy)
                  00014cec    00000040               : sockpcb.oem4f (.text:SockPcbRtChange)
                  00014d2c    00000040               : tcpprot.oem4f (.text:TcpPrSend)
                  00014d6c    00000040     sntp_ndk.aem4f : sntp.oem4f (.text:changeServer)
                  00014dac    00000040     rtsv7M4_T_le_v4SPD16_eabi.lib : u_divt2.asm.obj (.text)
                  00014dec    00000040                                   : sprintf.c.obj (.text:sprintf)
                  00014e2c    00000040                                   : strtok.c.obj (.text:strtok)
                  00014e6c    00000040     http_ndk.aem4f : httpcli.oem4f (.text:threadCreate)
                  00014eac    00000004     main_pem4f.oem4f (.text:ti_sysbios_BIOS_RtsGateProxy_leave__E)
                  00014eb0    00000040     sysbios.aem4f : BIOS.obj (.text:ti_sysbios_family_arm_lm4_Timer_startup__E)
                  00014ef0    00000040                   : BIOS.obj (.text:ti_sysbios_heaps_HeapMem_Instance_init__E)
                  00014f30    0000003e     nettool_ipv4.aem4f : dhcpmain.oem4f (.text:DHCPClose)
                  00014f6e    00000002     --HOLE-- [fill = 0]
                  00014f70    0000003e     stk.aem4f : nimu.oem4f (.text:NIMUAllocateName)
                  00014fae    0000003e     os.aem4f : task.oem4f (.text:TaskCreate)
                  00014fec    0000003e     stk.aem4f : tcpprot.oem4f (.text:TcpPrDisconnect)
                  0001502a    0000003e     rtsv7M4_T_le_v4SPD16_eabi.lib : _printfi.c.obj (.text:_fcpy)
                  00015068    0000003e     stk.aem4f : file.oem4f (.text:fdint_unlockfd)
                  000150a6    0000003c     nettool_ipv4.aem4f : config.oem4f (.text:CfgEntryGetData)
                  000150e2    0000003c     driverlib.lib : emac.obj (.text:EMACIntDisable)
                  0001511e    0000003c     stk.aem4f : node.oem4f (.text:NodeUpdatePL)
                  0001515a    00000002     --HOLE-- [fill = 0]
                  0001515c    0000003c               : rtable.oem4f (.text:RtWalkBegin)
                  00015198    0000003c               : tcpprot.oem4f (.text:TcpPrConnect)
                  000151d4    0000003c               : tcptime.oem4f (.text:TcpSetPersist)
                  00015210    0000003c               : rtc.oem4f (.text:_RTCSendRtAdv)
                  0001524c    0000003c               : rtable.oem4f (.text:_RtNodeRemove)
                  00015288    0000003c     hal_timer_bios.aem4f : lltimer.oem4f (.text:_llTimerInit)
                  000152c4    0000003c     rtsv7M4_T_le_v4SPD16_eabi.lib : strncasecmp.c.obj (.text:strncasecmp)
                  00015300    0000003c     sysbios.aem4f : BIOS.obj (.text:ti_sysbios_family_arm_lm4_Seconds_set__E)
                  0001533c    00000004                   : BIOS.obj (.text:ti_sysbios_family_arm_lm4_Timer_masterEnable__I)
                  00015340    0000003c                   : BIOS.obj (.text:ti_sysbios_family_arm_m3_Hwi_excSvCall__I)
                  0001537c    00000004     main_pem4f.oem4f (.text:ti_sysbios_family_arm_m3_Hwi_delete)
                  00015380    0000003c     sysbios.aem4f : BIOS.obj (.text:ti_sysbios_heaps_HeapMem_init__I)
                  000153bc    00000004     main_pem4f.oem4f (.text:ti_sysbios_family_arm_m3_Hwi_destruct)
                  000153c0    0000003c     sysbios.aem4f : BIOS.obj (.text:ti_sysbios_knl_Swi_restore__E)
                  000153fc    0000003a     driverlib.lib : emac.obj (.text:EMACIntEnable)
                  00015436    0000003a     drivers_tivaware.aem4f : I2CTiva.oem4f (.text:I2CTiva_completeTransfer)
                  00015470    00000038     driverlib.lib : emac.obj (.text:EMACConfigGet)
                  000154a8    00000038     drivers_tivaware.aem4f : I2C.oem4f (.text:I2C_init)
                  000154e0    00000038     stk.aem4f : ipfrag.oem4f (.text:IPReasmTimeout)
                  00015518    00000038               : node.oem4f (.text:NodeGetRt)
                  00015550    00000038     driverlib.lib : sysctl.obj (.text:SysCtlPeripheralReady)
                  00015588    00000038     stk.aem4f : tcpprot.oem4f (.text:TcpClose)
                  000155c0    00000038               : timer.oem4f (.text:TimerHSTick)
                  000155f8    00000038     rtsv7M4_T_le_v4SPD16_eabi.lib : trgmsg.c.obj (.text:__TI_writemsg)
                  00015630    00000038     nettool_ipv4.aem4f : dhcpbild.oem4f (.text:dhcpBuildDiscover)
                  00015668    00000038                        : dhcptags.oem4f (.text:dhcpOptionsClear)
                  000156a0    00000038     stk.aem4f : file.oem4f (.text:fdint_waitevent)
                  000156d8    00000038     rtsv7M4_T_le_v4SPD16_eabi.lib : fs_tod_t2.asm.obj (.text)
                  00015710    00000038     sysbios.aem4f : BIOS.obj (.text:ti_sysbios_family_arm_m3_Hwi_excNoIsr__I)
                  00015748    00000038     main_pem4f.oem4f (.text:ti_sysbios_knl_Clock_create)
                  00015780    00000038     sysbios.aem4f : BIOS.obj (.text:ti_sysbios_knl_Task_processVitalTaskFlag__I)
                  000157b8    00000038     ti.targets.arm.rtsarm.aem4f : SysMin.oem4f (.text:xdc_runtime_SysMin_putch__E)
                  000157f0    00000038                                 : System.oem4f (.text:xdc_runtime_System_atexit__E)
                  00015828    00000036     drivers_tivaware.aem4f : I2CTiva.oem4f (.text:I2CTiva_close)
                  0001585e    00000036     stk.aem4f : ip.oem4f (.text:IPChecksum)
                  00015894    00000036     network_ndk.aem4f : ssock.oem4f (.text:Ssock_recv)
                  000158ca    00000036     rtsv7M4_T_le_v4SPD16_eabi.lib : strncpy.c.obj (.text:strncpy)
                  00015900    00000035     main.obj (.text:printError)
                  00015935    00000003     --HOLE-- [fill = 0]
                  00015938    00000034     nettool_ipv4.aem4f : config.oem4f (.text:CfgSetService)
                  0001596c    00000034     driverlib.lib : emac.obj (.text:EMACConfigSet)
                  000159a0    00000034                   : emac.obj (.text:EMACIntClear)
                  000159d4    00000034     drivers_tivaware.aem4f : EMACSnow.oem4f (.text:EMACSnow_emacPoll)
                  00015a08    00000034                            : EMACSnow.oem4f (.text:EMACSnow_isLinkUp)
                  00015a3c    00000034                            : EMAC.oem4f (.text:EMAC_init)
                  00015a70    00000034     stk.aem4f : exec.oem4f (.text:ExecClose)
                  00015aa4    00000034               : nimu.oem4f (.text:NIMUFindByName)
                  00015ad8    00000034               : nimu.oem4f (.text:NIMUInit)
                  00015b0c    00000034               : rawethsock.oem4f (.text:RawEthSockNotify)
                  00015b40    00000034               : sockprot.oem4f (.text:SockPrCtlError)
                  00015b74    00000034     driverlib.lib : sysctl.obj (.text:SysCtlPeripheralEnable)
                  00015ba8    00000034     rtsv7M4_T_le_v4SPD16_eabi.lib : trgmsg.c.obj (.text:__TI_readmsg)
                  00015bdc    00000034     os.aem4f : mem.oem4f (.text:mmUnInitPage)
                  00015c10    00000034              : ossys.oem4f (.text:stricmp)
                  00015c44    00000034     rtsv7M4_T_le_v4SPD16_eabi.lib : strstr.c.obj (.text:strstr)
                  00015c78    00000034     sysbios.aem4f : BIOS.obj (.text:ti_sysbios_family_arm_m3_Hwi_Instance_finalize__E)
                  00015cac    00000004     main_pem4f.oem4f (.text:ti_sysbios_family_arm_m3_TaskSupport_Module__startupDone__S)
                  00015cb0    00000034     sysbios.aem4f : BIOS.obj (.text:ti_sysbios_family_arm_m3_Hwi_excNmi__I)
                  00015ce4    00000004     main_pem4f.oem4f (.text:ti_sysbios_heaps_HeapMem_Module_GateProxy_enter__E)
                  00015ce8    00000034     sysbios.aem4f : BIOS.obj (.text:ti_sysbios_hal_Hwi_checkStack)
                  00015d1c    00000034     main_pem4f.oem4f (.text:ti_sysbios_knl_Semaphore_create)
                  00015d50    00000034     ti.targets.arm.rtsarm.aem4f : Core-label.oem4f (.text:xdc_runtime_Core_assignLabel__I)
                  00015d84    00000033                                 : Text.oem4f (.text:xdc_runtime_Text_printVisFxn__I)
                  00015db7    00000001     --HOLE-- [fill = 0]
                  00015db8    00000032     nettool_ipv4.aem4f : config.oem4f (.text:CfgGetImmediate)
                  00015dea    00000032     stk.aem4f : pipe.oem4f (.text:PipeCheck)
                  00015e1c    00000032               : route.oem4f (.text:RtDeRef)
                  00015e4e    00000032               : route.oem4f (.text:RtSetFailure)
                  00015e80    00000032               : sb.oem4f (.text:SBFlush)
                  00015eb2    00000032               : sb.oem4f (.text:SBSetMax)
                  00015ee4    00000032               : sock.oem4f (.text:SockIntAbort)
                  00015f16    00000032     nettool_ipv4.aem4f : config.oem4f (.text:_CfgAcquire)
                  00015f48    00000032                        : dhcpsm.oem4f (.text:dhcpIPRemove)
                  00015f7a    00000006     driverlib.lib : emac.obj (.text:EMACTxDMADescriptorListSet)
                  00015f80    00000032     sysbios.aem4f : BIOS.obj (.text:ti_sysbios_hal_Hwi_initStack)
                  00015fb2    00000006     driverlib.lib : gpio.obj (.text:GPIOIntClear)
                  00015fb8    00000032     sysbios.aem4f : BIOS.obj (.text:ti_sysbios_knl_Event_pendTimeout__I)
                  00015fea    00000006     driverlib.lib : gpio.obj (.text:GPIOPinWrite)
                  00015ff0    00000032     sysbios.aem4f : BIOS.obj (.text:ti_sysbios_knl_Semaphore_pendTimeout__I)
                  00016022    00000030     driverlib.lib : emac.obj (.text:EMACAddrSet)
                  00016052    00000002     --HOLE-- [fill = 0]
                  00016054    00000030     drivers_tivaware.aem4f : EMACSnow.oem4f (.text:EMACSnow_handlePackets)
                  00016084    00000030                            : I2C.oem4f (.text:I2C_open)
                  000160b4    00000030     netctrl_min_ipv4.aem4f : netsrv.oem4f (.text:NS_PreBoot)
                  000160e4    00000030     stk.aem4f : sock.oem4f (.text:SockBind)
                  00016114    00000030     rtsv7M4_T_le_v4SPD16_eabi.lib : snprintf.c.obj (.text:_outs)
                  00016144    00000030     nettool_ipv4.aem4f : dhcpsock.oem4f (.text:dhcpPacketSend)
                  00016174    00000030     stk.aem4f : listlib.oem4f (.text:list_remove_node)
                  000161a4    00000030     http_ndk.aem4f : httpcli.oem4f (.text:skipLine)
                  000161d4    00000030     main_pem4f.oem4f (.text:ti_sysbios_BIOS_atExitFunc__I)
                  00016204    00000004     main_pem4f.oem4f (.text:ti_sysbios_heaps_HeapMem_Module_GateProxy_leave__E)
                  00016208    00000030     sysbios.aem4f : BIOS.obj (.text:ti_sysbios_family_arm_lm4_Timer_stop__E)
                  00016238    00000030                   : BIOS.obj (.text:ti_sysbios_family_arm_m3_TaskSupport_start__E)
                  00016268    00000030     main_pem4f.oem4f (.text:ti_sysbios_gates_GateHwi_Object__create__S)
                  00016298    00000030     main_pem4f.oem4f (.text:ti_sysbios_gates_GateMutex_Object__create__S)
                  000162c8    00000030     sysbios.aem4f : BIOS.obj (.text:ti_sysbios_gates_GateMutex_enter__E)
                  000162f8    00000030     main_pem4f.oem4f (.text:ti_sysbios_heaps_HeapMem_Object__create__S)
                  00016328    00000030     main_pem4f.oem4f (.text:ti_sysbios_knl_Event_create)
                  00016358    00000030     main_pem4f.oem4f (.text:ti_sysbios_knl_Semaphore_construct)
                  00016388    00000030     ti.targets.arm.rtsarm.aem4f : SysMin.oem4f (.text:xdc_runtime_SysMin_abort__E)
                  000163b8    00000030                                 : System.oem4f (.text:xdc_runtime_System_processAtExit__E)
                  000163e8    0000002e     stk.aem4f : sb.oem4f (.text:SBFree)
                  00016416    0000002e     main_pem4f.oem4f (.text:malloc)
                  00016444    0000002e     rtsv7M4_T_le_v4SPD16_eabi.lib : i_tofd_t2.asm.obj (.text)
                  00016472    0000002e                                   : strcasecmp.c.obj (.text:strcasecmp)
                  000164a0    0000002c     driverlib.lib : emac.obj (.text:EMACIntStatus)
                  000164cc    0000002c     stk.aem4f : file.oem4f (.text:FdSignalEvent)
                  000164f8    0000002c               : igmp.oem4f (.text:IGMPTestGroup)
                  00016524    0000002c     os.aem4f : task.oem4f (.text:NDK_hookCreate)
                  00016550    0000002c     stk.aem4f : nimu.oem4f (.text:NIMUAllocateIndex)
                  0001657c    0000002c               : nimu.oem4f (.text:NIMUPacketServiceCheck)
                  000165a8    0000002c               : pipe.oem4f (.text:PipeClose)
                  000165d4    0000002c     sntp_ndk.aem4f : sntp.oem4f (.text:SNTP_forceTimeSync)
                  00016600    0000002c     stk.aem4f : sockpcb.oem4f (.text:SockPcbAttach)
                  0001662c    0000002c               : lli.oem4f (.text:_LLIExpListRemove)
                  00016658    0000002c               : lli.oem4f (.text:_LLITimeoutFlush)
                  00016684    0000002c               : rtable.oem4f (.text:_RtExpListRemove)
                  000166b0    0000002c               : file.oem4f (.text:fdint_setevent)
                  000166dc    0000002c     http_ndk.aem4f : httpcli.oem4f (.text:lookUpResponseFields)
                  00016708    0000002c     rtsv7M4_T_le_v4SPD16_eabi.lib : strncmp.c.obj (.text:strncmp)
                  00016734    0000002c     main_pem4f.oem4f (.text:ti_sysbios_knl_Clock_doTick__I)
                  00016760    0000002c     main_pem4f.oem4f (.text:ti_sysbios_knl_Queue_construct)
                  0001678c    00000004     main_pem4f.oem4f (.text:ti_sysbios_knl_Clock_TimerProxy_getMaxTicks__E)
                  00016790    0000002c     sysbios.aem4f : BIOS.obj (.text:ti_sysbios_knl_Task_restore__E)
                  000167bc    0000002c     ti.targets.arm.rtsarm.aem4f : Text.oem4f (.text:xdc_runtime_Text_cordText__E)
                  000167e8    0000002a     driverlib.lib : gpio.obj (.text:GPIODirModeSet)
                  00016812    0000002a     stk.aem4f : pbm.oem4f (.text:PBMQ_deq)
                  0001683c    0000002a     netctrl_min_ipv4.aem4f : netsrv.oem4f (.text:ServiceCallback)
                  00016866    0000002a     nettool_ipv4.aem4f : config.oem4f (.text:_CfgRelease)
                  00016890    0000002a                        : inetaddr.oem4f (.text:mergeLists)
                  000168ba    0000002a     rtsv7M4_T_le_v4SPD16_eabi.lib : strspn.c.obj (.text:strspn)
                  000168e4    0000002a     ti.targets.arm.rtsarm.aem4f : System.oem4f (.text:xdc_runtime_System_putchar__I)
                  0001690e    00000002     --HOLE-- [fill = 0]
                  00016910    00000028     stk.aem4f : bind.oem4f (.text:BindFindByNet)
                  00016938    00000028               : lli.oem4f (.text:LLIFree)
                  00016960    00000028     netctrl_min_ipv4.aem4f : netctrl.oem4f (.text:NC_SystemClose)
                  00016988    00000028     stk.aem4f : nimu.oem4f (.text:NIMUCreatePacket)
                  000169b0    00000028               : nimu.oem4f (.text:NIMUPacketService)
                  000169d8    00000028               : tcpin.oem4f (.text:TcpEnterTimeWait)
                  00016a00    00000028               : timer.oem4f (.text:TimerListRemove)
                  00016a28    00000028               : vlan.oem4f (.text:VLANFindSourceInterface)
                  00016a50    00000028               : vlan.oem4f (.text:VLANInit)
                  00016a78    00000028     nettool_ipv4.aem4f : dhcpsock.oem4f (.text:dhcpPacketReceive)
                  00016aa0    00000028     drivers_tivaware.aem4f : EMACSnow.oem4f (.text:signalLinkChange)
                  00016ac8    00000028     sysbios.aem4f : BIOS.obj (.text:ti_sysbios_knl_Clock_addI__E)
                  00016af0    00000028                   : BIOS.obj (.text:ti_sysbios_knl_Swi_Module_startup__E)
                  00016b18    00000026     nettool_ipv4.aem4f : config.oem4f (.text:CfgEntryInfo)
                  00016b3e    00000026     driverlib.lib : emac.obj (.text:EMACPHYRead)
                  00016b64    00000026                   : emac.obj (.text:EMACPHYWrite)
                  00016b8a    00000026     stk.aem4f : rawethsock.oem4f (.text:RawEthSockClose)
                  00016bb0    00000026     sysbios.aem4f : m3_Hwi_asm.obj (.text:ti_sysbios_family_arm_m3_Hwi_pendSV__I)
                  00016bd6    00000026     ti.targets.arm.rtsarm.aem4f : System.oem4f (.text:xdc_runtime_System_avprintf__E)
                  00016bfc    00000024     stk.aem4f : bind.oem4f (.text:BindFindByHost)
                  00016c20    00000024               : bind.oem4f (.text:BindGetIFByDBCast)
                  00016c44    00000024     drivers_tivaware.aem4f : EMACSnow.oem4f (.text:EMACSnow_pkt_service)
                  00016c68    00000024                            : EMACSnow.oem4f (.text:EMACSnow_primeRx)
                  00016c8c    00000024     stk.aem4f : exec.oem4f (.text:ExecTimer)
                  00016cb0    00000024     http_ndk.aem4f : httpcli.oem4f (.text:HTTPCli_disconnect)
                  00016cd4    00000024     stk.aem4f : nimu.oem4f (.text:NIMUFindByIndex)
                  00016cf8    00000024               : rtc.oem4f (.text:RTCAddHook)
                  00016d1c    00000024               : rawethsock_pcb.oem4f (.text:RawEthSockPcbFind)
                  00016d40    00000024               : route.oem4f (.text:RtFree)
                  00016d64    00000024               : route.oem4f (.text:RtSetTimeout)
                  00016d88    00000024               : sockpcb.oem4f (.text:SockPcbCleanup)
                  00016dac    00000024               : tcptime.oem4f (.text:TcpTimeoutWait2)
                  00016dd0    00000024     nettool_ipv4.aem4f : config.oem4f (.text:_CfgEntryProcess)
                  00016df4    00000024     http_ndk.aem4f : httpcli.oem4f (.text:getRequestFieldValue)
                  00016e18    00000024     rtsv7M4_T_le_v4SPD16_eabi.lib : strcspn.c.obj (.text:strcspn)
                  00016e3c    00000024     main_pem4f.oem4f (.text:ti_sysbios_BIOS_errorRaiseHook__I)
                  00016e60    00000024     main_pem4f.oem4f (.text:ti_sysbios_BIOS_registerRTSLock__I)
                  00016e84    00000024     main_pem4f.oem4f (.text:ti_sysbios_BIOS_removeRTSLock__I)
                  00016ea8    00000024     main_pem4f.oem4f (.text:ti_sysbios_BIOS_startFunc__I)
                  00016ecc    00000024     main_pem4f.oem4f (.text:ti_sysbios_gates_GateMutex_Object__delete__S)
                  00016ef0    00000024     sysbios.aem4f : BIOS.obj (.text:ti_sysbios_knl_Clock_Module_startup__E)
                  00016f14    00000004     main_pem4f.oem4f (.text:ti_sysbios_knl_Event_delete)
                  00016f18    00000024     sysbios.aem4f : BIOS.obj (.text:ti_sysbios_knl_Semaphore_Instance_init__E)
                  00016f3c    00000024     main_pem4f.oem4f (.text:ti_sysbios_knl_Semaphore_Object__delete__S)
                  00016f60    00000024     sysbios.aem4f : BIOS.obj (.text:ti_sysbios_knl_Task_restoreHwi__E)
                  00016f84    00000024     ti.targets.arm.rtsarm.aem4f : System.oem4f (.text:xdc_runtime_System_vprintf__E)
                  00016fa8    00000022     nettool_ipv4.aem4f : config.oem4f (.text:CfgEntryRef)
                  00016fca    00000022     stk.aem4f : vlan.oem4f (.text:VLANFindNode)
                  00016fec    00000004     main_pem4f.oem4f (.text:ti_sysbios_knl_Queue_destruct)
                  00016ff0    00000022     sysbios.aem4f : BIOS.obj (.text:ti_sysbios_family_arm_lm4_Timer_write__I)
                  00017012    00000022     main_pem4f.oem4f (.text:xdc_runtime_SysMin_output__I)
                  00017034    00000020     netctrl_min_ipv4.aem4f : netctrl.oem4f (.text:NC_BootComplete)
                  00017054    00000020     stk.aem4f : nimu.oem4f (.text:NIMUGetNumOfObject)
                  00017074    00000020               : rtc.oem4f (.text:RTCRemoveHook)
                  00017094    00000020               : tcp.oem4f (.text:TcpTimeoutRemove)
                  000170b4    00000020     Boot.aem4f : Boot_sysctl.oem4f (.text:_SysCtlMemTimingGet)
                  000170d4    00000020     main_pem4f.oem4f (.text:ti_sysbios_BIOS_rtsLock__I)
                  000170f4    00000020     main_pem4f.oem4f (.text:ti_sysbios_family_arm_m3_Hwi_Object__delete__S)
                  00017114    00000020     sysbios.aem4f : m3_Hwi_asm.obj (.text:ti_sysbios_family_arm_m3_Hwi_excHandlerAsm__I)
                  00017134    00000004     main_pem4f.oem4f (.text:ti_sysbios_knl_Semaphore_delete)
                  00017138    00000020     sysbios.aem4f : BIOS.obj (.text:ti_sysbios_family_arm_m3_Hwi_excHandler__I)
                  00017158    00000020     main_pem4f.oem4f (.text:ti_sysbios_gates_GateHwi_Object__delete__S)
                  00017178    00000020     main_pem4f.oem4f (.text:ti_sysbios_heaps_HeapMem_Object__delete__S)
                  00017198    00000020     main_pem4f.oem4f (.text:ti_sysbios_knl_Event_Object__delete__S)
                  000171b8    00000020     sysbios.aem4f : BIOS.obj (.text:ti_sysbios_knl_Idle_run__E)
                  000171d8    00000020     main_pem4f.oem4f (.text:ti_sysbios_knl_Semaphore_Object__destruct__S)
                  000171f8    00000020     main_pem4f.oem4f (.text:ti_sysbios_knl_Swi_Object__delete__S)
                  00017218    00000020     main_pem4f.oem4f (.text:ti_sysbios_knl_Task_Object__delete__S)
                  00017238    00000020     ti.targets.arm.rtsarm.aem4f : Registry.oem4f (.text:xdc_runtime_Registry_findById__E)
                  00017258    00000020                                 : SysMin.oem4f (.text:xdc_runtime_SysMin_Module_startup__E)
                  00017278    0000001e     stk.aem4f : fileuser.oem4f (.text:fdError)
                  00017296    0000001e               : listlib.oem4f (.text:list_remove)
                  000172b4    0000001e     main.obj (.text:send)
                  000172d2    0000001e     rtsv7M4_T_le_v4SPD16_eabi.lib : strcat.c.obj (.text:strcat)
                  000172f0    0000001e     sysbios.aem4f : m3_Hwi_asm_switch.obj (.text:ti_sysbios_family_xxx_Hwi_switchAndRunFunc)
                  0001730e    00000002     --HOLE-- [fill = 0]
                  00017310    0000001c     stk.aem4f : bind.oem4f (.text:BindFindByIF)
                  0001732c    0000001c               : exec.oem4f (.text:ExecBroadcast)
                  00017348    0000001c     os.aem4f : ossys.oem4f (.text:NDK_sprintf)
                  00017364    0000001c     stk.aem4f : nimu.oem4f (.text:NIMUAddHeader)
                  00017380    0000001c               : sockprot.oem4f (.text:SockPrDetach)
                  0001739c    0000001c     network_ndk.aem4f : ssock.oem4f (.text:Ssock_destruct)
                  000173b8    0000001c     os.aem4f : task.oem4f (.text:TaskDestroy)
                  000173d4    0000001c     drivers_tivaware.aem4f : GPIOTiva.oem4f (.text:getGpioIntIndex)
                  000173f0    0000001c     rtsv7M4_T_le_v4SPD16_eabi.lib : memccpy.c.obj (.text:memccpy)
                  0001740c    0000001c     main_pem4f.oem4f (.text:ti_ndk_config_global_taskCreateHook)
                  00017428    0000001c     sysbios.aem4f : BIOS.obj (.text:ti_sysbios_family_arm_lm4_Seconds_get__E)
                  00017444    0000001c     main_pem4f.oem4f (.text:ti_sysbios_family_arm_m3_Hwi_Object__destruct__S)
                  00017460    0000001c     sysbios.aem4f : BIOS.obj (.text:ti_sysbios_gates_GateMutex_Instance_init__E)
                  0001747c    0000001c     main_pem4f.oem4f (.text:ti_sysbios_knl_Queue_Object__destruct__S)
                  00017498    0000001c     sysbios.aem4f : BIOS.obj (.text:ti_sysbios_knl_Queue_put__E)
                  000174b4    00000004     main_pem4f.oem4f (.text:ti_sysbios_knl_Semaphore_destruct)
                  000174b8    0000001c     sysbios.aem4f : BIOS.obj (.text:ti_sysbios_knl_Task_enter__I)
                  000174d4    0000001c     ti.targets.arm.rtsarm.aem4f : Error.oem4f (.text:xdc_runtime_Error_raiseX__E)
                  000174f0    0000001c                                 : Memory.oem4f (.text:xdc_runtime_Memory_valloc__E)
                  0001750c    0000001c                                 : SysMin.oem4f (.text:xdc_runtime_SysMin_exit__E)
                  00017528    0000001c                                 : System.oem4f (.text:xdc_runtime_System_abort__E)
                  00017544    0000001a     stk.aem4f : bind.oem4f (.text:BindGetIP)
                  0001755e    0000001a               : sockint.oem4f (.text:SockSetOOBMark)
                  00017578    0000001a     rtsv7M4_T_le_v4SPD16_eabi.lib : s_copysign.c.obj (.text:copysign)
                  00017592    0000001a     stk.aem4f : file.oem4f (.text:fdint_getfdt)
                  000175ac    0000001a     main_pem4f.oem4f (.text:free)
                  000175c6    0000001a     main_pem4f.oem4f (.text:ti_sysbios_family_arm_m3_Hwi_Handle__label__S)
                  000175e0    0000001a     main_pem4f.oem4f (.text:ti_sysbios_gates_GateHwi_Handle__label__S)
                  000175fa    0000001a     main_pem4f.oem4f (.text:ti_sysbios_gates_GateMutex_Handle__label__S)
                  00017614    0000001a     main_pem4f.oem4f (.text:ti_sysbios_heaps_HeapMem_Handle__label__S)
                  0001762e    0000001a     main_pem4f.oem4f (.text:ti_sysbios_knl_Swi_Handle__label__S)
                  00017648    0000001a     main_pem4f.oem4f (.text:ti_sysbios_knl_Task_Handle__label__S)
                  00017662    00000006     driverlib.lib : i2c.obj (.text:I2CMasterIntDisable)
                  00017668    0000001a     sysbios.aem4f : BIOS.obj (.text:ti_sysbios_knl_Task_sleepTimeout__I)
                  00017682    0000001a     main_pem4f.oem4f (.text:xdc_runtime_System_aprintf__E)
                  0001769c    0000001a     main_pem4f.oem4f (.text:xdc_runtime_System_printf__E)
                  000176b6    00000002     --HOLE-- [fill = 0]
                  000176b8    00000018     drivers_tivaware.aem4f : EMACSnow.oem4f (.text:EMACSnow_emacSend)
                  000176d0    00000018     stk.aem4f : ip.oem4f (.text:IPRtChange)
                  000176e8    00000018               : rawethsock_pcb.oem4f (.text:RawEthSockPcbCleanup)
                  00017700    00000018     nettool_ipv4.aem4f : ipaddr.oem4f (.text:RouteHook)
                  00017718    00000018     stk.aem4f : tcpin.oem4f (.text:SEQ_GEQ)
                  00017730    00000018               : tcpout.oem4f (.text:SEQ_GEQ)
                  00017748    00000018               : tcpin.oem4f (.text:SEQ_GT)
                  00017760    00000018               : tcpout.oem4f (.text:SEQ_GT)
                  00017778    00000018               : tcpin.oem4f (.text:SEQ_LEQ)
                  00017790    00000018               : tcpout.oem4f (.text:SEQ_LEQ)
                  000177a8    00000018               : tcpin.oem4f (.text:SEQ_LT)
                  000177c0    00000018               : tcpout.oem4f (.text:SEQ_LT)
                  000177d8    00000018               : tcp.oem4f (.text:TcpTimeoutAdd)
                  000177f0    00000018     rtsv7M4_T_le_v4SPD16_eabi.lib : args_main.c.obj (.text:_args_main)
                  00017808    00000018                                   : snprintf.c.obj (.text:_outc)
                  00017820    00000018                                   : sprintf.c.obj (.text:_outs)
                  00017838    00000018     nettool_ipv4.aem4f : dhcpsock.oem4f (.text:dhcpSocketClose)
                  00017850    00000018     stk.aem4f : file.oem4f (.text:fdint_clearevent)
                  00017868    00000018     nettool_ipv4.aem4f : inetaddr.oem4f (.text:freeaddrinfo)
                  00017880    00000018     stk.aem4f : listlib.oem4f (.text:list_add)
                  00017898    00000018     rtsv7M4_T_le_v4SPD16_eabi.lib : strcmp.c.obj (.text:strcmp)
                  000178b0    00000018     main_pem4f.oem4f (.text:ti_sysbios_BIOS_rtsUnlock__I)
                  000178c8    00000018     main_pem4f.oem4f (.text:ti_sysbios_family_arm_lm4_Timer_Module__startupDone__F)
                  000178e0    00000018     main_pem4f.oem4f (.text:ti_sysbios_family_arm_m3_Hwi_Module__startupDone__F)
                  000178f8    00000018     sysbios.aem4f : m3_TaskSupport_asm.obj (.text:ti_sysbios_family_arm_m3_TaskSupport_swap__E)
                  00017910    00000018                   : BIOS.obj (.text:ti_sysbios_gates_GateMutex_leave__E)
                  00017928    00000018     main_pem4f.oem4f (.text:time)
                  00017940    00000018     ti.targets.arm.rtsarm.aem4f : Error.oem4f (.text:xdc_runtime_Error_check__E)
                  00017958    00000018                                 : System.oem4f (.text:xdc_runtime_System_exit__E)
                  00017970    00000018                                 : Text.oem4f (.text:xdc_runtime_Text_ropeText__E)
                  00017988    00000016     driverlib.lib : emac.obj (.text:EMACReset)
                  0001799e    00000016                   : emac.obj (.text:EMACRxEnable)
                  000179b4    00000016                   : emac.obj (.text:EMACTxEnable)
                  000179ca    00000016     http_ndk.aem4f : httpcli.oem4f (.text:HTTPCli_destruct)
                  000179e0    00000016                    : httpcli.oem4f (.text:HTTPCli_readRawResponseBody)
                  000179f6    00000016     driverlib.lib : i2c.obj (.text:I2CMasterErr)
                  00017a0c    00000016     stk.aem4f : file.oem4f (.text:fdint_freefdt)
                  00017a22    00000016     rtsv7M4_T_le_v4SPD16_eabi.lib : strchr.c.obj (.text:strchr)
                  00017a38    00000016     main_pem4f.oem4f (.text:ti_sysbios_BIOS_exitFunc__I)
                  00017a4e    00000016     main.obj (.text:ti_sysbios_knl_Semaphore_Params_init)
                  00017a64    00000016     main.obj (.text:ti_sysbios_knl_Task_Params_init)
                  00017a7a    00000016     ti.targets.arm.rtsarm.aem4f : System.oem4f (.text:xdc_runtime_System_vsprintf__E)
                  00017a90    00000014     stk.aem4f : bind.oem4f (.text:BindIPHost2IF)
                  00017aa4    00000014     driverlib.lib : flash.obj (.text:FlashUserGet)
                  00017ab8    00000014     http_ndk.aem4f : httpcli.oem4f (.text:HTTPCli_getResponseStatus)
                  00017acc    00000014     netctrl_min_ipv4.aem4f : netctrl.oem4f (.text:NC_NetStop)
                  00017ae0    00000014     os.aem4f : task.oem4f (.text:NDK_hookExit)
                  00017af4    00000014     stk.aem4f : nimu.oem4f (.text:NIMUSendPacket)
                  00017b08    00000014     nettool_ipv4.aem4f : ipaddr.oem4f (.text:NtRemoveNetwork)
                  00017b1c    00000014     stk.aem4f : rawethsock_pcb.oem4f (.text:RawEthSockPcbInit)
                  00017b30    00000014     network_ndk.aem4f : ssock.oem4f (.text:Ssock_construct)
                  00017b44    00000014     stk.aem4f : timer.oem4f (.text:TimerFree)
                  00017b58    00000014     main.obj (.text:connect)
                  00017b6c    00000014     main.obj (.text:socket)
                  00017b80    00000014     rtsv7M4_T_le_v4SPD16_eabi.lib : strcpy.c.obj (.text:strcpy)
                  00017b94    00000014                                   : strlen.c.obj (.text:strlen)
                  00017ba8    00000014     main_pem4f.oem4f (.text:ti_ndk_config_global_taskExitHook)
                  00017bbc    00000014     main_pem4f.oem4f (.text:ti_sysbios_family_arm_m3_Hwi_Object__get__S)
                  00017bd0    00000014     sysbios.aem4f : BIOS.obj (.text:ti_sysbios_family_arm_m3_Hwi_switchFromBootStack__E)
                  00017be4    00000014     main_pem4f.oem4f (.text:ti_sysbios_heaps_HeapMem_Object__get__S)
                  00017bf8    00000014     sysbios.aem4f : BIOS.obj (.text:ti_sysbios_knl_Event_Instance_init__E)
                  00017c0c    00000014     main_pem4f.oem4f (.text:ti_sysbios_knl_Swi_Object__get__S)
                  00017c20    00000014     main_pem4f.oem4f (.text:ti_sysbios_knl_Task_Object__first__S)
                  00017c34    00000014     main_pem4f.oem4f (.text:ti_sysbios_knl_Task_Object__next__S)
                  00017c48    00000014     main.obj (.text:timeUpdateHook)
                  00017c5c    00000012     driverlib.lib : gpio.obj (.text:GPIOPinTypeEthernetLED)
                  00017c6e    00000012                   : gpio.obj (.text:GPIOPinTypeI2C)
                  00017c80    00000012                   : gpio.obj (.text:GPIOPinTypeI2CSCL)
                  00017c92    00000012     stk.aem4f : sockprot.oem4f (.text:SockPrAttach)
                  00017ca4    00000012               : sockint.oem4f (.text:SockSetOOBData)
                  00017cb6    00000012     rtsv7M4_T_le_v4SPD16_eabi.lib : atof.c.obj (.text:atof)
                  00017cc8    00000012     nettool_ipv4.aem4f : inetaddr.oem4f (.text:inet_addr)
                  00017cda    00000006     driverlib.lib : i2c.obj (.text:I2CMasterIntEnable)
                  00017ce0    00000012     sysbios.aem4f : BIOS.obj (.text:ti_sysbios_hal_Hwi_Module_startup__E)
                  00017cf2    00000006     drivers_tivaware.aem4f : I2CTiva.oem4f (.text:I2CTiva_control)
                  00017cf8    00000012     sysbios.aem4f : BIOS.obj (.text:ti_sysbios_knl_Semaphore_reset__E)
                  00017d0a    00000012     rtsv7M4_T_le_v4SPD16_eabi.lib : wcslen.c.obj (.text:wcslen)
                  00017d1c    00000012     main_pem4f.oem4f (.text:xdc_runtime_Startup_exec__I)
                  00017d2e    00000002     --HOLE-- [fill = 0]
                  00017d30    00000010     main_pem4f.oem4f (.text:.bootCodeSection:ti_catalog_arm_cortexm4_tiva_ce_Boot_init__I)
                  00017d40    00000010     stk.aem4f : bind.oem4f (.text:BindIF2IPHost)
                  00017d50    00000010               : bind.oem4f (.text:BindIFNet2IPHost)
                  00017d60    00000010     driverlib.lib : emac.obj (.text:EMACFrameFilterSet)
                  00017d70    00000010     stk.aem4f : exec.oem4f (.text:ExecHRef)
                  00017d80    00000010     drivers_tivaware.aem4f : I2C.oem4f (.text:I2C_Params_init)
                  00017d90    00000010     netctrl_min_ipv4.aem4f : netctrl.oem4f (.text:NC_IPUpdate)
                  00017da0    00000010     stk.aem4f : nimu.oem4f (.text:NIMUGetRsvdSizeInfo)
                  00017db0    00000010     sysbios.aem4f : BIOS.obj (.text:ti_sysbios_BIOS_exit__E)
                  00017dc0    00000010                   : BIOS.obj (.text:ti_sysbios_BIOS_getCpuFreq__E)
                  00017dd0    00000010                   : BIOS.obj (.text:ti_sysbios_BIOS_setThreadType__E)
                  00017de0    00000010                   : BIOS.obj (.text:ti_sysbios_BIOS_start__E)
                  00017df0    00000010                   : BIOS.obj (.text:ti_sysbios_family_arm_lm4_TimestampProvider_rolloverFunc__E)
                  00017e00    00000010                   : m3_TaskSupport_asm.obj (.text:ti_sysbios_family_arm_m3_TaskSupport_glue)
                  00017e10    00000010                   : BIOS.obj (.text:ti_sysbios_gates_GateMutex_Instance_finalize__E)
                  00017e20    00000010                   : BIOS.obj (.text:ti_sysbios_knl_Semaphore_Instance_finalize__E)
                  00017e30    00000010                   : BIOS.obj (.text:ti_sysbios_knl_Swi_disable__E)
                  00017e40    00000010     main_pem4f.oem4f (.text:ti_sysbios_knl_Task_Object__get__S)
                  00017e50    00000010     sysbios.aem4f : BIOS.obj (.text:ti_sysbios_knl_Task_disable__E)
                  00017e60    00000010     ti.targets.arm.rtsarm.aem4f : Gate.oem4f (.text:xdc_runtime_Gate_leaveSystem__E)
                  00017e70    00000010                                 : Memory.oem4f (.text:xdc_runtime_Memory_free__E)
                  00017e80    00000010                                 : SysMin.oem4f (.text:xdc_runtime_SysMin_ready__E)
                  00017e90    00000010                                 : System.oem4f (.text:xdc_runtime_System_vsnprintf__E)
                  00017ea0    00000010     main_pem4f.oem4f (.text:xdc_runtime_Text_visitRope__I)
                  00017eb0    0000000e     drivers_tivaware.aem4f : EMACSnow.oem4f (.text:EMACSnow_emacioctl)
                  00017ebe    0000000e     stk.aem4f : exec.oem4f (.text:ExecLowResource)
                  00017ecc    0000000e     driverlib.lib : gpio.obj (.text:GPIOIntStatus)
                  00017eda    0000000e     rtsv7M4_T_le_v4SPD16_eabi.lib : copy_decompress_none.c.obj (.text:decompress:none:__TI_decompress_none)
                  00017ee8    0000000e     http_ndk.aem4f : httpcli.oem4f (.text:isValidSocket)
                  00017ef6    00000002     --HOLE-- [fill = 0]
                  00017ef8    0000000e     sysbios.aem4f : BIOS.obj (.text:ti_sysbios_knl_Idle_loop__E)
                  00017f06    00000002     --HOLE-- [fill = 0]
                  00017f08    0000000e                   : BIOS.obj (.text:ti_sysbios_knl_Queue_empty__E)
                  00017f16    00000002     --HOLE-- [fill = 0]
                  00017f18    0000000c     stk.aem4f : bind.oem4f (.text:BindGetFirst)
                  00017f24    0000000c     nettool_ipv4.aem4f : config.oem4f (.text:CfgSetDefault)
                  00017f30    0000000c     drivers_tivaware.aem4f : EMACSnow.oem4f (.text:EMACSnow_init)
                  00017f3c    0000000c     os.aem4f : task.oem4f (.text:NDK_hookInit)
                  00017f48    0000000c     stk.aem4f : nimu.oem4f (.text:NIMUSetRsvdSizeInfo)
                  00017f54    0000000c     os.aem4f : task.oem4f (.text:NotifyLowResource)
                  00017f60    0000000c     stk.aem4f : pbm.oem4f (.text:PBM_close)
                  00017f6c    0000000c     os.aem4f : semaphore.oem4f (.text:SemDelete)
                  00017f78    0000000c     rtsv7M4_T_le_v4SPD16_eabi.lib : ctime_.c.obj (.text:__ctime32)
                  00017f84    0000000c     hal_timer_bios.aem4f : lltimer.oem4f (.text:_llTimerShutdown)
                  00017f90    0000000c     rtsv7M4_T_le_v4SPD16_eabi.lib : _lock.c.obj (.text:_register_lock)
                  00017f9c    0000000c                                   : _lock.c.obj (.text:_register_unlock)
                  00017fa8    0000000c     main.obj (.text:close)
                  00017fb4    0000000c     rtsv7M4_T_le_v4SPD16_eabi.lib : copy_zero_init.c.obj (.text:decompress:ZI:__TI_zero_init)
                  00017fc0    0000000c     hal_timer_bios.aem4f : lltimer.oem4f (.text:llTimerGetStartTime)
                  00017fcc    00000004     main_pem4f.oem4f (.text:ti_sysbios_knl_Swi_delete)
                  00017fd0    0000000c     sysbios.aem4f : BIOS.obj (.text:ti_sysbios_BIOS_getThreadType__E)
                  00017fdc    00000004     main_pem4f.oem4f (.text:ti_sysbios_knl_Task_delete)
                  00017fe0    0000000c     sysbios.aem4f : BIOS.obj (.text:ti_sysbios_family_arm_lm4_Timer_getMaxTicks__E)
                  00017fec    00000004     ti.targets.arm.rtsarm.aem4f : Error.oem4f (.text:xdc_runtime_Error_getMsg__E)
                  00017ff0    0000000c     sysbios.aem4f : BIOS.obj (.text:ti_sysbios_family_arm_lm4_TimestampProvider_startTimer__E)
                  00017ffc    0000000c     main_pem4f.oem4f (.text:ti_sysbios_family_arm_m3_Hwi_Params__init__S)
                  00018008    0000000c     sysbios.aem4f : BIOS.obj (.text:ti_sysbios_family_arm_m3_Hwi_disableFxn__E)
                  00018014    00000004     ti.targets.arm.rtsarm.aem4f : Error.oem4f (.text:xdc_runtime_Error_getSite__E)
                  00018018    0000000c     sysbios.aem4f : BIOS.obj (.text:ti_sysbios_family_arm_m3_TaskSupport_checkStack__E)
                  00018024    00000004     main_pem4f.oem4f (.text:xdc_runtime_System_Module_GateProxy_enter__E)
                  00018028    0000000c     sysbios.aem4f : BIOS.obj (.text:ti_sysbios_family_arm_m3_TaskSupport_getStackAlignment__E)
                  00018034    00000004     main_pem4f.oem4f (.text:xdc_runtime_System_Module_GateProxy_leave__E)
                  00018038    0000000c     sysbios.aem4f : BIOS.obj (.text:ti_sysbios_gates_GateHwi_enter__E)
                  00018044    0000000c     main_pem4f.oem4f (.text:ti_sysbios_knl_Clock_Params__init__S)
                  00018050    0000000c     sysbios.aem4f : BIOS.obj (.text:ti_sysbios_knl_Clock_getTicks__E)
                  0001805c    0000000c     main_pem4f.oem4f (.text:ti_sysbios_knl_Queue_Object__get__S)
                  00018068    0000000c     main_pem4f.oem4f (.text:ti_sysbios_knl_Semaphore_Params__init__S)
                  00018074    0000000c     main_pem4f.oem4f (.text:ti_sysbios_knl_Task_Params__init__S)
                  00018080    0000000c     sysbios.aem4f : BIOS.obj (.text:ti_sysbios_knl_Task_getIdleTask__E)
                  0001808c    00000004     ti.targets.arm.rtsarm.aem4f : System.oem4f (.text:xdc_runtime_System_aprintf_va__F)
                  00018090    0000000c     sysbios.aem4f : BIOS.obj (.text:ti_sysbios_knl_Task_self__E)
                  0001809c    0000000c     ti.targets.arm.rtsarm.aem4f : Error.oem4f (.text:xdc_runtime_Error_init__E)
                  000180a8    0000000c                                 : Gate.oem4f (.text:xdc_runtime_Gate_enterSystem__E)
                  000180b4    0000000c                                 : Memory.oem4f (.text:xdc_runtime_Memory_calloc__E)
                  000180c0    0000000c                                 : Memory.oem4f (.text:xdc_runtime_Memory_getMaxDefaultTypeAlign__E)
                  000180cc    0000000a     http_ndk.aem4f : httpcli.oem4f (.text:HTTPCli_setRequestFields)
                  000180d6    0000000a                    : httpcli.oem4f (.text:HTTPCli_setResponseFields)
                  000180e0    0000000a     driverlib.lib : i2c.obj (.text:I2CMasterDisable)
                  000180ea    0000000a                   : i2c.obj (.text:I2CMasterEnable)
                  000180f4    0000000a     drivers_tivaware.aem4f : I2CTiva.oem4f (.text:I2CTiva_init)
                  000180fe    0000000a                            : I2C.oem4f (.text:I2C_transfer)
                  00018108    0000000a     rtsv7M4_T_le_v4SPD16_eabi.lib : sprintf.c.obj (.text:_outc)
                  00018112    0000000a     stk.aem4f : file.oem4f (.text:fdint_signalevent)
                  0001811c    0000000a               : file.oem4f (.text:fdint_signaltimeout)
                  00018126    0000000a     main_pem4f.oem4f (.text:xdc_runtime_IHeap_alloc)
                  00018130    0000000a     main_pem4f.oem4f (.text:xdc_runtime_IHeap_free)
                  0001813a    00000008     EK_TM4C1294XL.obj (.text:EK_TM4C1294XL_initGPIO)
                  00018142    00000008     driverlib.lib : emac.obj (.text:EMACTxDMAPollDemand)
                  0001814a    00000008                   : i2c.obj (.text:I2CMasterIntClear)
                  00018152    00000008                   : i2c.obj (.text:I2CMasterSlaveAddrSet)
                  0001815a    00000008     drivers_tivaware.aem4f : I2CTiva.oem4f (.text:I2CTiva_blockingCallback)
                  00018162    00000008     stk.aem4f : node.oem4f (.text:NodeFree)
                  0001816a    00000008     os.aem4f : task.oem4f (.text:TaskBlock)
                  00018172    00000002     --HOLE-- [fill = 0]
                  00018174    00000008     rtsv7M4_T_le_v4SPD16_eabi.lib : errno.c.obj (.text:__aeabi_errno_addr)
                  0001817c    00000008     sysbios.aem4f : BIOS.obj (.text:ti_sysbios_family_arm_lm4_Timer_masterDisable__I)
                  00018184    00000004     ti.targets.arm.rtsarm.aem4f : System.oem4f (.text:xdc_runtime_System_printf_va__F)
                  00018188    00000008     sysbios.aem4f : BIOS.obj (.text:ti_sysbios_family_arm_m3_Hwi_doSwiRestore__I)
                  00018190    00000008                   : BIOS.obj (.text:ti_sysbios_family_arm_m3_Hwi_startup__E)
                  00018198    00000008                   : BIOS.obj (.text:ti_sysbios_knl_Task_getHookContext__E)
                  000181a0    00000008                   : BIOS.obj (.text:ti_sysbios_knl_Task_setHookContext__E)
                  000181a8    00000006     driverlib.lib : sysctl.obj (.text:SysCtlDelay)
                  000181ae    00000006     stk.aem4f : tcpprot.oem4f (.text:TcpPrRecv)
                  000181b4    00000006     ti.targets.arm.rtsarm.aem4f : xdc_noinit.oem4f (.text:__xdc__init)
                  000181ba    00000006     http_ndk.aem4f : httpcli.oem4f (.text:startSecureMode)
                  000181c0    00000006     sysbios.aem4f : BIOS.obj (.text:ti_sysbios_family_arm_lm4_TimestampProvider_Module_startup__E)
                  000181c6    00000002     --HOLE-- [fill = 0]
                  000181c8    00000006                   : BIOS.obj (.text:ti_sysbios_family_arm_m3_Hwi_doTaskRestore__I)
                  000181ce    00000002     --HOLE-- [fill = 0]
                  000181d0    00000006                   : BIOS.obj (.text:ti_sysbios_family_arm_m3_Hwi_restoreFxn__E)
                  000181d6    00000002     --HOLE-- [fill = 0]
                  000181d8    00000006                   : BIOS.obj (.text:ti_sysbios_gates_GateHwi_leave__E)
                  000181de    00000002     --HOLE-- [fill = 0]
                  000181e0    00000006                   : BIOS.obj (.text:ti_sysbios_heaps_HeapMem_isBlocking__E)
                  000181e6    00000002     --HOLE-- [fill = 0]
                  000181e8    00000006                   : BIOS.obj (.text:ti_sysbios_knl_Queue_Instance_init__E)
                  000181ee    00000002     --HOLE-- [fill = 0]
                  000181f0    00000006                   : BIOS.obj (.text:ti_sysbios_knl_Swi_startup__E)
                  000181f6    00000006     ti.targets.arm.rtsarm.aem4f : System.oem4f (.text:xdc_runtime_System_Module_startup__E)
                  000181fc    00000004     --HOLE-- [fill = 0]
                  00018200    00000004     sysbios.aem4f : BIOS.obj (.text:ti_sysbios_gates_GateHwi_query__E)
                  00018204    00000004     --HOLE-- [fill = 0]
                  00018208    00000004                   : BIOS.obj (.text:ti_sysbios_gates_GateMutex_query__E)
                  0001820c    00000004     --HOLE-- [fill = 0]
                  00018210    00000004                   : BIOS.obj (.text:ti_sysbios_knl_Task_startup__E)
                  00018214    00000004     --HOLE-- [fill = 0]
                  00018218    00000002                   : BIOS.obj (.text:ti_sysbios_gates_GateHwi_Instance_init__E)
                  0001821a    00000006     --HOLE-- [fill = 0]
                  00018220    00000002                   : BIOS.obj (.text:ti_sysbios_knl_Clock_logTick__E)
                  00018222    00000006     --HOLE-- [fill = 0]
                  00018228    00000002                   : BIOS.obj (.text:ti_sysbios_knl_Swi_Instance_finalize__E)

.const     0    00018230    00002d07     
                  00018230    00001996     main_pem4f.oem4f (.const:xdc_runtime_Text_charTab__A)
                  00019bc6    00000002     main_pem4f.oem4f (.const:ti_catalog_arm_cortexm4_tiva_ce_Boot_Module__id__C)
                  00019bc8    00000370     http_ndk.aem4f : httpstd.oem4f (.const:.string)
                  00019f38    000001b6     paj7620.obj (.const:initRegisterArray)
                  0001a0ee    00000002     main_pem4f.oem4f (.const:ti_sysbios_family_arm_m3_Hwi_Module__id__C)
                  0001a0f0    00000120     Boot.aem4f : Boot_sysctl.oem4f (.const:g_pppui32XTALtoVCO)
                  0001a210    00000101     rtsv7M4_T_le_v4SPD16_eabi.lib : ctype.c.obj (.const:.string:_ctypes_)
                  0001a311    00000001     main_pem4f.oem4f (.const:.string:$P$T0$1)
                  0001a312    000000e4     main_pem4f.oem4f (.const:xdc_runtime_Text_nodeTab__A)
                  0001a3f6    00000002     main_pem4f.oem4f (.const:ti_sysbios_hal_Hwi_Module__id__C)
                  0001a3f8    000000cc     main_pem4f.oem4f (.const:.string)
                  0001a4c4    00000004     main_pem4f.oem4f (.const:ti_catalog_arm_cortexm4_tiva_ce_Boot_A_mustNotUseEnhancedClockMode__C)
                  0001a4c8    000000c8     rtsv7M4_T_le_v4SPD16_eabi.lib : strtod.c.obj (.const:$O1$$)
                  0001a590    00000090     driverlib.lib : gpio.obj (.const:g_pui32GPIOBaseAddrs)
                  0001a620    0000006c     Boot.aem4f : Boot_sysctl.oem4f (.const:g_pui32Xtals)
                  0001a68c    00000060     rtsv7M4_T_le_v4SPD16_eabi.lib : mktime.c.obj (.const:$O1$$)
                  0001a6ec    00000054     drivers_tivaware.aem4f : GPIOTiva.oem4f (.const:.string)
                  0001a740    00000054     stk.aem4f : sockprot.oem4f (.const:Code2Err)
                  0001a794    0000004c     rtsv7M4_T_le_v4SPD16_eabi.lib : asctime.c.obj (.const:$O1$$)
                  0001a7e0    0000004c                                   : asctime.c.obj (.const:.string)
                  0001a82c    00000048     drivers_tivaware.aem4f : GPIOTiva.oem4f (.const:gpioBaseAddresses)
                  0001a874    0000003e     stk.aem4f : rtc.oem4f (.const:.string)
                  0001a8b2    00000002     main_pem4f.oem4f (.const:ti_sysbios_heaps_HeapMem_Module__id__C)
                  0001a8b4    0000003c     main_pem4f.oem4f (.const:ti_sysbios_knl_Task_Object__PARAMS__C)
                  0001a8f0    00000034     main_pem4f.oem4f (.const)
                  0001a924    00000030     Boot.aem4f : Boot_sysctl.oem4f (.const:g_sXTALtoMEMTIM)
                  0001a954    00000030     main_pem4f.oem4f (.const:ti_sysbios_family_arm_m3_Hwi_Object__PARAMS__C)
                  0001a984    00000028     main_pem4f.oem4f (.const:ti_sysbios_heaps_HeapMem_Module__FXNS__C)
                  0001a9ac    00000028     main_pem4f.oem4f (.const:ti_sysbios_knl_Swi_Object__PARAMS__C)
                  0001a9d4    00000024     EK_TM4C1294XL.obj (.const:I2C_config)
                  0001a9f8    00000024     main_pem4f.oem4f (.const:ti_sysbios_gates_GateHwi_Module__FXNS__C)
                  0001aa1c    00000024     main_pem4f.oem4f (.const:ti_sysbios_gates_GateMutex_Module__FXNS__C)
                  0001aa40    00000024     main_pem4f.oem4f (.const:ti_sysbios_heaps_HeapMem_Object__PARAMS__C)
                  0001aa64    00000024     main_pem4f.oem4f (.const:ti_sysbios_knl_Clock_Object__PARAMS__C)
                  0001aa88    00000024     main_pem4f.oem4f (.const:ti_sysbios_knl_Semaphore_Object__PARAMS__C)
                  0001aaac    00000024     main_pem4f.oem4f (.const:xdc_runtime_Startup_sfxnTab__A)
                  0001aad0    00000020     nettool_ipv4.aem4f : inetaddr.oem4f (.const)
                  0001aaf0    00000020     main_pem4f.oem4f (.const:ti_sysbios_family_arm_m3_Hwi_Object__DESC__C)
                  0001ab10    00000020     main_pem4f.oem4f (.const:ti_sysbios_gates_GateHwi_Object__DESC__C)
                  0001ab30    00000020     main_pem4f.oem4f (.const:ti_sysbios_gates_GateMutex_Object__DESC__C)
                  0001ab50    00000020     main_pem4f.oem4f (.const:ti_sysbios_heaps_HeapMem_Object__DESC__C)
                  0001ab70    00000020     main_pem4f.oem4f (.const:ti_sysbios_knl_Clock_Object__DESC__C)
                  0001ab90    00000020     main_pem4f.oem4f (.const:ti_sysbios_knl_Event_Object__DESC__C)
                  0001abb0    00000020     main_pem4f.oem4f (.const:ti_sysbios_knl_Queue_Object__DESC__C)
                  0001abd0    00000020     main_pem4f.oem4f (.const:ti_sysbios_knl_Semaphore_Object__DESC__C)
                  0001abf0    00000020     main_pem4f.oem4f (.const:ti_sysbios_knl_Swi_Object__DESC__C)
                  0001ac10    00000020     main_pem4f.oem4f (.const:ti_sysbios_knl_Task_Object__DESC__C)
                  0001ac30    0000001c     drivers_tivaware.aem4f : I2CTiva.oem4f (.const)
                  0001ac4c    00000018     main.obj (.const:$P$T0$1)
                  0001ac64    00000018     EK_TM4C1294XL.obj (.const:EMAC_config)
                  0001ac7c    00000018     driverlib.lib : emac.obj (.const)
                  0001ac94    00000018     EK_TM4C1294XL.obj (.const:i2cTivaHWAttrs)
                  0001acac    00000018     main_pem4f.oem4f (.const:ti_sysbios_gates_GateHwi_Object__PARAMS__C)
                  0001acc4    00000018     main_pem4f.oem4f (.const:ti_sysbios_gates_GateMutex_Object__PARAMS__C)
                  0001acdc    00000018     main_pem4f.oem4f (.const:ti_sysbios_knl_Event_Object__PARAMS__C)
                  0001acf4    00000018     main_pem4f.oem4f (.const:ti_sysbios_knl_Queue_Object__PARAMS__C)
                  0001ad0c    00000018     main_pem4f.oem4f (.const:ti_sysbios_knl_Task_hooks__A)
                  0001ad24    00000014     EK_TM4C1294XL.obj (.const:GPIOTiva_config)
                  0001ad38    00000014     main_pem4f.oem4f (.const:xdc_runtime_Startup_firstFxns__A)
                  0001ad4c    00000012     main_pem4f.oem4f (.const:xdc_runtime_Startup_sfxnRts__A)
                  0001ad5e    00000002     main_pem4f.oem4f (.const:ti_sysbios_knl_Task_Module__id__C)
                  0001ad60    00000010     drivers_tivaware.aem4f : I2C.oem4f (.const)
                  0001ad70    00000010     EK_TM4C1294XL.obj (.const:emacHWAttrs)
                  0001ad80    00000008     http_ndk.aem4f : httpcli.oem4f (.const:.string)
                  0001ad88    00000008     Boot.aem4f : Boot_sysctl.oem4f (.const)
                  0001ad90    00000008     drivers_tivaware.aem4f : EMACSnow.oem4f (.const)
                  0001ad98    00000008     main_pem4f.oem4f (.const:ti_sysbios_family_arm_m3_Hwi_excHookFuncs__A)
                  0001ada0    00000008     main_pem4f.oem4f (.const:ti_sysbios_knl_Idle_funcList__A)
                  0001ada8    00000008     main_pem4f.oem4f (.const:ti_sysbios_knl_Idle_funcList__C)
                  0001adb0    00000008     main_pem4f.oem4f (.const:ti_sysbios_knl_Task_hooks__C)
                  0001adb8    00000008     main_pem4f.oem4f (.const:xdc_runtime_Startup_firstFxns__C)
                  0001adc0    00000008     main_pem4f.oem4f (.const:xdc_runtime_Startup_lastFxns__C)
                  0001adc8    00000004     main_pem4f.oem4f (.const:ti_catalog_arm_cortexm4_tiva_ce_Boot_Module__diagsEnabled__C)
                  0001adcc    00000004     main_pem4f.oem4f (.const:ti_catalog_arm_cortexm4_tiva_ce_Boot_Module__diagsIncluded__C)
                  0001add0    00000004     main_pem4f.oem4f (.const:ti_catalog_arm_cortexm4_tiva_ce_Boot_Module__diagsMask__C)
                  0001add4    00000004     main_pem4f.oem4f (.const:ti_sysbios_family_arm_lm4_Timer_enableFunc__C)
                  0001add8    00000004     main_pem4f.oem4f (.const:ti_sysbios_family_arm_lm4_Timer_numTimerDevices__C)
                  0001addc    00000004     main_pem4f.oem4f (.const:ti_sysbios_family_arm_lm4_Timer_startupNeeded__C)
                  0001ade0    00000004     main_pem4f.oem4f (.const:ti_sysbios_family_arm_m3_Hwi_E_NMI__C)
                  0001ade4    00000004     main_pem4f.oem4f (.const:ti_sysbios_family_arm_m3_Hwi_E_alreadyDefined__C)
                  0001ade8    00000004     main_pem4f.oem4f (.const:ti_sysbios_family_arm_m3_Hwi_E_busFault__C)
                  0001adec    00000004     main_pem4f.oem4f (.const:ti_sysbios_family_arm_m3_Hwi_E_debugMon__C)
                  0001adf0    00000004     main_pem4f.oem4f (.const:ti_sysbios_family_arm_m3_Hwi_E_hardFault__C)
                  0001adf4    00000004     main_pem4f.oem4f (.const:ti_sysbios_family_arm_m3_Hwi_E_memFault__C)
                  0001adf8    00000004     main_pem4f.oem4f (.const:ti_sysbios_family_arm_m3_Hwi_E_noIsr__C)
                  0001adfc    00000004     main_pem4f.oem4f (.const:ti_sysbios_family_arm_m3_Hwi_E_reserved__C)
                  0001ae00    00000004     main_pem4f.oem4f (.const:ti_sysbios_family_arm_m3_Hwi_E_svCall__C)
                  0001ae04    00000004     main_pem4f.oem4f (.const:ti_sysbios_family_arm_m3_Hwi_E_usageFault__C)
                  0001ae08    00000004     main_pem4f.oem4f (.const:ti_sysbios_family_arm_m3_Hwi_NUM_INTERRUPTS__C)
                  0001ae0c    00000004     main_pem4f.oem4f (.const:ti_sysbios_family_arm_m3_Hwi_Object__count__C)
                  0001ae10    00000004     main_pem4f.oem4f (.const:ti_sysbios_family_arm_m3_Hwi_ccr__C)
                  0001ae14    00000004     main_pem4f.oem4f (.const:ti_sysbios_family_arm_m3_Hwi_excHandlerFunc__C)
                  0001ae18    00000004     main_pem4f.oem4f (.const:ti_sysbios_family_arm_m3_Hwi_excHookFuncs__C)
                  0001ae1c    00000004     main_pem4f.oem4f (.const:ti_sysbios_family_arm_m3_Hwi_nullIsrFunc__C)
                  0001ae20    00000004     main_pem4f.oem4f (.const:ti_sysbios_family_arm_m3_Hwi_priGroup__C)
                  0001ae24    00000004     main_pem4f.oem4f (.const:ti_sysbios_family_arm_m3_TaskSupport_stackAlignment__C)
                  0001ae28    00000004     main_pem4f.oem4f (.const:ti_sysbios_gates_GateMutex_Instance_State_sem__O)
                  0001ae2c    00000004     main_pem4f.oem4f (.const:ti_sysbios_hal_Hwi_E_stackOverflow__C)
                  0001ae30    00000004     main_pem4f.oem4f (.const:ti_sysbios_heaps_HeapMem_E_memory__C)
                  0001ae34    00000004     main_pem4f.oem4f (.const:ti_sysbios_heaps_HeapMem_Module__gateObj__C)
                  0001ae38    00000004     main_pem4f.oem4f (.const:ti_sysbios_heaps_HeapMem_Object__count__C)
                  0001ae3c    00000004     main_pem4f.oem4f (.const:ti_sysbios_heaps_HeapMem_reqAlign__C)
                  0001ae40    00000004     main_pem4f.oem4f (.const:ti_sysbios_knl_Clock_Module_State_clockQ__O)
                  0001ae44    00000004     main_pem4f.oem4f (.const:ti_sysbios_knl_Event_Instance_State_pendQ__O)
                  0001ae48    00000004     main_pem4f.oem4f (.const:ti_sysbios_knl_Semaphore_Instance_State_pendQ__O)
                  0001ae4c    00000004     main_pem4f.oem4f (.const:ti_sysbios_knl_Swi_Object__count__C)
                  0001ae50    00000004     main_pem4f.oem4f (.const:ti_sysbios_knl_Task_E_deleteNotAllowed__C)
                  0001ae54    00000004     main_pem4f.oem4f (.const:ti_sysbios_knl_Task_E_spOutOfBounds__C)
                  0001ae58    00000004     main_pem4f.oem4f (.const:ti_sysbios_knl_Task_E_stackOverflow__C)
                  0001ae5c    00000004     main_pem4f.oem4f (.const:ti_sysbios_knl_Task_Module_State_inactiveQ__O)
                  0001ae60    00000004     main_pem4f.oem4f (.const:ti_sysbios_knl_Task_Module_State_terminatedQ__O)
                  0001ae64    00000004     main_pem4f.oem4f (.const:ti_sysbios_knl_Task_Object__count__C)
                  0001ae68    00000004     main_pem4f.oem4f (.const:ti_sysbios_knl_Task_Object__heap__C)
                  0001ae6c    00000004     main_pem4f.oem4f (.const:ti_sysbios_knl_Task_allBlockedFunc__C)
                  0001ae70    00000004     main_pem4f.oem4f (.const:ti_sysbios_knl_Task_defaultStackHeap__C)
                  0001ae74    00000004     main_pem4f.oem4f (.const:ti_sysbios_knl_Task_defaultStackSize__C)
                  0001ae78    00000004     main_pem4f.oem4f (.const:ti_sysbios_knl_Task_numConstructedTasks__C)
                  0001ae7c    00000004     main_pem4f.oem4f (.const:xdc_runtime_Assert_E_assertFailed__C)
                  0001ae80    00000004     main_pem4f.oem4f (.const:xdc_runtime_Core_A_initializedParams__C)
                  0001ae84    00000004     main_pem4f.oem4f (.const:xdc_runtime_Core_Module__diagsEnabled__C)
                  0001ae88    00000004     main_pem4f.oem4f (.const:xdc_runtime_Core_Module__diagsIncluded__C)
                  0001ae8c    00000004     main_pem4f.oem4f (.const:xdc_runtime_Core_Module__diagsMask__C)
                  0001ae90    00000004     main_pem4f.oem4f (.const:xdc_runtime_Error_E_memory__C)
                  0001ae94    00000004     main_pem4f.oem4f (.const:xdc_runtime_Error_Module__diagsEnabled__C)
                  0001ae98    00000004     main_pem4f.oem4f (.const:xdc_runtime_Error_Module__diagsIncluded__C)
                  0001ae9c    00000004     main_pem4f.oem4f (.const:xdc_runtime_Error_Module__diagsMask__C)
                  0001aea0    00000004     main_pem4f.oem4f (.const:xdc_runtime_Error_Module__loggerFxn8__C)
                  0001aea4    00000004     main_pem4f.oem4f (.const:xdc_runtime_Error_Module__loggerObj__C)
                  0001aea8    00000004     main_pem4f.oem4f (.const:xdc_runtime_Error_policyFxn__C)
                  0001aeac    00000004     main_pem4f.oem4f (.const:xdc_runtime_Error_raiseHook__C)
                  0001aeb0    00000004     main_pem4f.oem4f (.const:xdc_runtime_IGateProvider_Interface__BASE__C)
                  0001aeb4    00000004     main_pem4f.oem4f (.const:xdc_runtime_IHeap_Interface__BASE__C)
                  0001aeb8    00000004     main_pem4f.oem4f (.const:xdc_runtime_IModule_Interface__BASE__C)
                  0001aebc    00000004     main_pem4f.oem4f (.const:xdc_runtime_Log_L_error__C)
                  0001aec0    00000004     main_pem4f.oem4f (.const:xdc_runtime_Main_Module__diagsEnabled__C)
                  0001aec4    00000004     main_pem4f.oem4f (.const:xdc_runtime_Main_Module__diagsIncluded__C)
                  0001aec8    00000004     main_pem4f.oem4f (.const:xdc_runtime_Main_Module__diagsMask__C)
                  0001aecc    00000004     main_pem4f.oem4f (.const:xdc_runtime_Main_Module__loggerFxn4__C)
                  0001aed0    00000004     main_pem4f.oem4f (.const:xdc_runtime_Main_Module__loggerObj__C)
                  0001aed4    00000004     main_pem4f.oem4f (.const:xdc_runtime_Memory_defaultHeapInstance__C)
                  0001aed8    00000004     main_pem4f.oem4f (.const:xdc_runtime_Startup_execImpl__C)
                  0001aedc    00000004     main_pem4f.oem4f (.const:xdc_runtime_Startup_lastFxns__A)
                  0001aee0    00000004     main_pem4f.oem4f (.const:xdc_runtime_Startup_maxPasses__C)
                  0001aee4    00000004     main_pem4f.oem4f (.const:xdc_runtime_Startup_sfxnRts__C)
                  0001aee8    00000004     main_pem4f.oem4f (.const:xdc_runtime_Startup_sfxnTab__C)
                  0001aeec    00000004     main_pem4f.oem4f (.const:xdc_runtime_SysMin_bufSize__C)
                  0001aef0    00000004     main_pem4f.oem4f (.const:xdc_runtime_SysMin_outputFunc__C)
                  0001aef4    00000004     main_pem4f.oem4f (.const:xdc_runtime_System_Module__gateObj__C)
                  0001aef8    00000004     main_pem4f.oem4f (.const:xdc_runtime_System_abortFxn__C)
                  0001aefc    00000004     main_pem4f.oem4f (.const:xdc_runtime_System_exitFxn__C)
                  0001af00    00000004     main_pem4f.oem4f (.const:xdc_runtime_System_extendFxn__C)
                  0001af04    00000004     main_pem4f.oem4f (.const:xdc_runtime_System_maxAtexitHandlers__C)
                  0001af08    00000004     main_pem4f.oem4f (.const:xdc_runtime_Text_charTab__C)
                  0001af0c    00000004     main_pem4f.oem4f (.const:xdc_runtime_Text_nameEmpty__C)
                  0001af10    00000004     main_pem4f.oem4f (.const:xdc_runtime_Text_nameStatic__C)
                  0001af14    00000004     main_pem4f.oem4f (.const:xdc_runtime_Text_nameUnknown__C)
                  0001af18    00000004     main_pem4f.oem4f (.const:xdc_runtime_Text_nodeTab__C)
                  0001af1c    00000004     main_pem4f.oem4f (.const:xdc_runtime_Text_visitRopeFxn__C)
                  0001af20    00000002     main_pem4f.oem4f (.const:xdc_runtime_Core_Module__id__C)
                  0001af22    00000002     main_pem4f.oem4f (.const:xdc_runtime_Error_Module__loggerDefined__C)
                  0001af24    00000002     main_pem4f.oem4f (.const:xdc_runtime_Error_maxDepth__C)
                  0001af26    00000002     main_pem4f.oem4f (.const:xdc_runtime_Main_Module__id__C)
                  0001af28    00000002     main_pem4f.oem4f (.const:xdc_runtime_Main_Module__loggerDefined__C)
                  0001af2a    00000002     main_pem4f.oem4f (.const:xdc_runtime_Memory_Module__id__C)
                  0001af2c    00000002     main_pem4f.oem4f (.const:xdc_runtime_SysMin_flushAtExit__C)
                  0001af2e    00000002     main_pem4f.oem4f (.const:xdc_runtime_Text_charCnt__C)
                  0001af30    00000002     main_pem4f.oem4f (.const:xdc_runtime_Text_isLoaded__C)
                  0001af32    00000002     main_pem4f.oem4f (.const:xdc_runtime_Text_registryModsLastId__C)
                  0001af34    00000002     main_pem4f.oem4f (.const:xdc_runtime_Text_unnamedModsLastId__C)
                  0001af36    00000001     main_pem4f.oem4f (.const:xdc_runtime_Error_policy__C)

.cinit     0    0001af38    00000550     
                  0001af38    00000518     (.cinit..data.load) [load image, compression = lzss]
                  0001b450    0000000c     (__TI_handler_table)
                  0001b45c    00000004     --HOLE-- [fill = 0]
                  0001b460    00000008     (.cinit..bss.load) [load image, compression = zero_init]
                  0001b468    00000008     (.cinit..vecs.load) [load image, compression = zero_init]
                  0001b470    00000018     (__TI_cinit_table)

.init_array 
*          0    00000000    00000000     UNINITIALIZED

.resetVecs 
*          0    00000000    0000003c     
                  00000000    0000003c     main_pem4f.oem4f (.resetVecs)

.bss       0    20000380    000297b8     UNINITIALIZED
                  20000380    00016000     (.common:ti_sysbios_heaps_HeapMem_Instance_State_0_buf__A)
                  20016380    00007918     main_pem4f.oem4f (.bss:NDK_MMBUFFER)
                  2001dc98    00006e00     main_pem4f.oem4f (.bss:taskStackSection)
                  20024a98    00000068     stk.aem4f : ip.oem4f (.bss:ips)
                  20024b00    00003ef8     main_pem4f.oem4f (.bss:NDK_PACKETMEM)
                  200289f8    00000360     (.common:ti_sysbios_family_arm_m3_Hwi_dispatchTable)
                  20028d58    00000200     (.common:data)
                  20028f58    00000120     rtsv7M4_T_le_v4SPD16_eabi.lib : trgmsg.c.obj (.bss:_CIOBUF_)
                  20029078    00000100     stk.aem4f : igmp.oem4f (.bss:igmp)
                  20029178    00000100     (.common:i2cTivaObjects)
                  20029278    00000100     (.common:msg)
                  20029378    000000b8               : tcp.oem4f (.bss:tcps)
                  20029430    000000b4     netctrl_min_ipv4.aem4f : netsrv.oem4f (.bss:ipcfgcopy)
                  200294e4    00000090     drivers_tivaware.aem4f : EMACSnow.oem4f (.bss:g_pRxDescriptors)
                  20029574    00000090                            : EMACSnow.oem4f (.bss:g_pTxDescriptors)
                  20029604    00000090                            : GPIOTiva.oem4f (.bss:gpioCallbackInfo)
                  20029694    00000080     (.common:xdc_runtime_SysMin_Module_State_0_outbuf__A)
                  20029714    00000064     stk.aem4f : nimu.oem4f (.bss:nimu_mcb)
                  20029778    0000004c               : icmp.oem4f (.bss:_ICMPIn)
                  200297c4    0000004c               : icmp.oem4f (.bss:_ICMPOut)
                  20029810    00000040     drivers_tivaware.aem4f : EMACSnow.oem4f (.bss:EMACSnow_private)
                  20029850    00000040     (.common:desc)
                  20029890    00000040     (.common:hum)
                  200298d0    00000040     (.common:temp)
                  20029910    00000030     (.common:ntpServers)
                  20029940    00000028     stk.aem4f : vlan.oem4f (.bss:vlan_mcb)
                  20029968    00000024     netctrl_min_ipv4.aem4f : netsrv.oem4f (.bss:oscfgcopy)
                  2002998c    00000024     stk.aem4f : udp.oem4f (.bss:udps)
                  200299b0    0000001c     rtsv7M4_T_le_v4SPD16_eabi.lib : asctime.c.obj (.bss:time_buf)
                  200299cc    0000001c     (.common:BlockCount)
                  200299e8    0000001c     (.common:BlockMax)
                  20029a04    0000001c     (.common:PageCount)
                  20029a20    0000001c     (.common:PageMax)
                  20029a3c    00000018     (.common:stkEvent)
                  20029a54    00000014     (.common:pfnHook)
                  20029a68    00000010     (.common:igmpCount)
                  20029a78    00000010     (.common:raweths)
                  20029a88    00000010     (.common:raws)
                  20029a98    0000000c     (.common:PBMQ_free)
                  20029aa4    0000000c     (.common:tpseudo)
                  20029ab0    0000000c     (.common:upseudo)
                  20029abc    00000008     main.obj (.bss)
                  20029ac4    00000008     (.common:emacObjects)
                  20029acc    00000008     (.common:parmbuf)
                  20029ad4    00000004     (.common:IPCache)
                  20029ad8    00000004     (.common:IPTrialAddress)
                  20029adc    00000004     (.common:LastCLKTime)
                  20029ae0    00000004     (.common:LastCLKValid)
                  20029ae4    00000004     (.common:NetHaltFlag)
                  20029ae8    00000004     (.common:NetReturnCode)
                  20029aec    00000004     (.common:TimeMS)
                  20029af0    00000004     (.common:TimeS)
                  20029af4    00000004     (.common:TimeStart)
                  20029af8    00000004     (.common:_IGMPInDiscard)
                  20029afc    00000004     (.common:_IGMPInQuery)
                  20029b00    00000004     (.common:_IGMPInQueryGroup)
                  20029b04    00000004     (.common:_IGMPInResponse)
                  20029b08    00000004     (.common:_IGMPOutResponse)
                  20029b0c    00000004     (.common:g_ulStatus)
                  20029b10    00000004     (.common:gpioInterruptVectors)
                  20029b14    00000004     (.common:hEvent)
                  20029b18    00000004     (.common:hTimer$1)
                  20029b1c    00000004     (.common:hTimer$1)
                  20029b20    00000004     (.common:raweth_pcb)
                  20029b24    00000004     (.common:ti_sysbios_knl_Task_Instance_State_0_hookEnv__A)
                  20029b28    00000004     (.common:ti_sysbios_knl_Task_Instance_State_1_hookEnv__A)
                  20029b2c    00000004     (.common:ti_sysbios_knl_Task_Instance_State_2_hookEnv__A)
                  20029b30    00000004     (.common:ti_sysbios_knl_Task_Instance_State_3_hookEnv__A)
                  20029b34    00000004     (.common:ti_sysbios_knl_Task_Instance_State_4_hookEnv__A)

.data      0    2002ab38    00000b9c     UNINITIALIZED
                  2002ab38    0000017c     main_pem4f.oem4f (.data:ti_sysbios_knl_Task_Object__table__V)
                  2002acb4    0000011c     http_ndk.aem4f : httpstd.oem4f (.data)
                  2002add0    000000b4     stk.aem4f : exec.oem4f (.data:_ipcfg)
                  2002ae84    00000080     main_pem4f.oem4f (.data:ti_sysbios_family_arm_lm4_Timer_Object__table__V)
                  2002af04    00000080     main_pem4f.oem4f (.data:ti_sysbios_knl_Swi_Module_State_0_readyQ__A)
                  2002af84    00000080     main_pem4f.oem4f (.data:ti_sysbios_knl_Task_Module_State_0_readyQ__A)
                  2002b004    00000050     main_pem4f.oem4f (.data:ti_sysbios_knl_Semaphore_Object__table__V)
                  2002b054    0000004d     nettool_ipv4.aem4f : dhcptags.oem4f (.data:DHCPTypeCode)
                  2002b0a1    00000001     --HOLE--
                  2002b0a2    00000002                        : dnscomn.oem4f (.data)
                  2002b0a4    00000044     main_pem4f.oem4f (.data:ti_sysbios_knl_Task_Module__state__V)
                  2002b0e8    00000040     netctrl_min_ipv4.aem4f : netsrv.oem4f (.data:CloseOrder)
                  2002b128    00000040                            : netsrv.oem4f (.data:OpenOrder)
                  2002b168    00000040     main_pem4f.oem4f (.data:ti_sysbios_family_arm_lm4_Timer_Module_State_0_device__A)
                  2002b1a8    00000038     main_pem4f.oem4f (.data:ti_sysbios_gates_GateMutex_Object__table__V)
                  2002b1e0    00000034     stk.aem4f : tcptime.oem4f (.data:tcp_backoff)
                  2002b214    00000034     main_pem4f.oem4f (.data:ti_sysbios_family_arm_m3_Hwi_Module__state__V)
                  2002b248    00000032     drivers_tivaware.aem4f : EMACSnow.oem4f (.data)
                  2002b27a    00000002     main_pem4f.oem4f (.data:ti_sysbios_family_arm_m3_Hwi_Module_State_0_excActive__A)
                  2002b27c    00000030     sntp_ndk.aem4f : sntp.oem4f (.data)
                  2002b2ac    00000030     stk.aem4f : exec.oem4f (.data:tasks)
                  2002b2dc    00000030     main_pem4f.oem4f (.data:ti_sysbios_family_arm_m3_Hwi_Object__table__V)
                  2002b30c    00000030     main_pem4f.oem4f (.data:ti_sysbios_knl_Swi_Object__table__V)
                  2002b33c    0000002c     main_pem4f.oem4f (.data:ti_sysbios_knl_Clock_Module__state__V)
                  2002b368    00000028     stk.aem4f : rtc.oem4f (.data)
                  2002b390    00000024     os.aem4f : ossys.oem4f (.data:_oscfg)
                  2002b3b4    00000024     rtsv7M4_T_le_v4SPD16_eabi.lib : localtim.c.obj (.data:local_tm)
                  2002b3d8    00000024     os.aem4f : mem.oem4f (.data)
                  2002b3fc    00000024     main_pem4f.oem4f (.data:ti_sysbios_BIOS_Module__state__V)
                  2002b420    00000020     main_pem4f.oem4f (.data:ti_sysbios_family_arm_lm4_Timer_Module_State_0_handles__A)
                  2002b440    0000001c     netctrl_min_ipv4.aem4f : netctrl.oem4f (.data)
                  2002b45c    0000001c     main_pem4f.oem4f (.data:ti_ndk_config_Global_Id2Size)
                  2002b478    0000001c     main_pem4f.oem4f (.data:ti_sysbios_knl_Swi_Module__state__V)
                  2002b494    00000018     main_pem4f.oem4f (.data:TaskName)
                  2002b4ac    00000018     os.aem4f : task.oem4f (.data)
                  2002b4c4    00000018     stk.aem4f : sockpcb.oem4f (.data)
                  2002b4dc    00000018     main_pem4f.oem4f (.data:ti_sysbios_heaps_HeapMem_Object__table__V)
                  2002b4f4    00000014     main_pem4f.oem4f (.data:ReportStr)
                  2002b508    00000014     main_pem4f.oem4f (.data:StatusStr)
                  2002b51c    00000014     stk.aem4f : rtable.oem4f (.data)
                  2002b530    00000010     rtsv7M4_T_le_v4SPD16_eabi.lib : tmzone.c.obj (.data:_tz)
                  2002b540    00000010     EK_TM4C1294XL.obj (.data:gpioPinConfigs)
                  2002b550    00000010     http_ndk.aem4f : httpcli.oem4f (.data)
                  2002b560    00000010     stk.aem4f : igmp.oem4f (.data)
                  2002b570    0000000c     main_pem4f.oem4f (.data:ti_sysbios_family_arm_lm4_Timer_Module__state__V)
                  2002b57c    0000000c     main_pem4f.oem4f (.data:xdc_runtime_SysMin_Module__state__V)
                  2002b588    0000000b     stk.aem4f : tcpout.oem4f (.data)
                  2002b593    00000001     --HOLE--
                  2002b594    00000008     rtsv7M4_T_le_v4SPD16_eabi.lib : _lock.c.obj (.data:$O1$$)
                  2002b59c    00000008     EK_TM4C1294XL.obj (.data:NIMUDeviceTable)
                  2002b5a4    00000008     EK_TM4C1294XL.obj (.data:gpioCallbackFunctions)
                  2002b5ac    00000008     main.obj (.data)
                  2002b5b4    00000008     main_pem4f.oem4f (.data)
                  2002b5bc    00000008     netctrl_min_ipv4.aem4f : netsrv.oem4f (.data)
                  2002b5c4    00000008     stk.aem4f : exec.oem4f (.data)
                  2002b5cc    00000008               : icmp.oem4f (.data)
                  2002b5d4    00000008               : ip.oem4f (.data)
                  2002b5dc    00000008               : ipin.oem4f (.data)
                  2002b5e4    00000008               : lli.oem4f (.data)
                  2002b5ec    00000008               : tcp.oem4f (.data)
                  2002b5f4    00000008               : timer.oem4f (.data)
                  2002b5fc    00000008     main_pem4f.oem4f (.data:ti_sysbios_family_arm_lm4_Seconds_Module__state__V)
                  2002b604    00000008     main_pem4f.oem4f (.data:ti_sysbios_family_arm_lm4_TimestampProvider_Module__state__V)
                  2002b60c    00000008     main_pem4f.oem4f (.data:ti_sysbios_family_arm_m3_Hwi_Module__root__V)
                  2002b614    00000008     main_pem4f.oem4f (.data:ti_sysbios_gates_GateHwi_Module__root__V)
                  2002b61c    00000008     main_pem4f.oem4f (.data:ti_sysbios_gates_GateMutex_Module__root__V)
                  2002b624    00000008     main_pem4f.oem4f (.data:ti_sysbios_heaps_HeapMem_Module__root__V)
                  2002b62c    00000008     main_pem4f.oem4f (.data:ti_sysbios_knl_Clock_Module__root__V)
                  2002b634    00000008     main_pem4f.oem4f (.data:ti_sysbios_knl_Event_Module__root__V)
                  2002b63c    00000008     main_pem4f.oem4f (.data:ti_sysbios_knl_Queue_Module__root__V)
                  2002b644    00000008     main_pem4f.oem4f (.data:ti_sysbios_knl_Semaphore_Module__root__V)
                  2002b64c    00000008     main_pem4f.oem4f (.data:ti_sysbios_knl_Swi_Module__root__V)
                  2002b654    00000008     main_pem4f.oem4f (.data:ti_sysbios_knl_Task_Module__root__V)
                  2002b65c    00000008     main_pem4f.oem4f (.data:xdc_runtime_Registry_Module__state__V)
                  2002b664    00000008     main_pem4f.oem4f (.data:xdc_runtime_Startup_Module__state__V)
                  2002b66c    00000008     main_pem4f.oem4f (.data:xdc_runtime_System_Module_State_0_atexitHandlers__A)
                  2002b674    00000008     main_pem4f.oem4f (.data:xdc_runtime_System_Module__state__V)
                  2002b67c    00000006     EK_TM4C1294XL.obj (.data:macAddress)
                  2002b682    00000006     stk.aem4f : lliout.oem4f (.data)
                  2002b688    00000005     drivers_tivaware.aem4f : GPIOTiva.oem4f (.data)
                  2002b68d    00000001     --HOLE--
                  2002b68e    00000002     main_pem4f.oem4f (.data:xdc_runtime_Error_Module__state__V)
                  2002b690    00000004     drivers_tivaware.aem4f : EMAC.oem4f (.data)
                  2002b694    00000004                            : I2C.oem4f (.data)
                  2002b698    00000004     hal_timer_bios.aem4f : lltimer.oem4f (.data)
                  2002b69c    00000004     nettool_ipv4.aem4f : config.oem4f (.data)
                  2002b6a0    00000004     rtsv7M4_T_le_v4SPD16_eabi.lib : errno.c.obj (.data)
                  2002b6a4    00000004                                   : stkdepth_vars.c.obj (.data)
                  2002b6a8    00000004                                   : strtok.c.obj (.data)
                  2002b6ac    00000004     stk.aem4f : bind.oem4f (.data)
                  2002b6b0    00000004               : ipfrag.oem4f (.data)
                  2002b6b4    00000004               : lliin.oem4f (.data)
                  2002b6b8    00000004               : node.oem4f (.data)
                  2002b6bc    00000004               : pbm.oem4f (.data)
                  2002b6c0    00000004     main_pem4f.oem4f (.data:ti_sysbios_family_arm_m3_Hwi_Module_State_0_excContext__A)
                  2002b6c4    00000004     main_pem4f.oem4f (.data:ti_sysbios_family_arm_m3_Hwi_Module_State_0_excStack__A)
                  2002b6c8    00000004     main_pem4f.oem4f (.data:ti_sysbios_gates_GateHwi_Object__table__V)
                  2002b6cc    00000004     main_pem4f.oem4f (.data:ti_sysbios_knl_Task_Module_State_0_idleTask__A)
                  2002b6d0    00000004     main_pem4f.oem4f (.data:xdc_runtime_Memory_Module__state__V)

.stack     0    20029b38    00001000     UNINITIALIZED
                  20029b38    00001000     --HOLE--

.bootVecs 
*          0    00000000    00000008     DSECT
                  00000000    00000008     boot.aem4f : boot.oem4f (.bootVecs)

.vecs      0    20000000    00000360     UNINITIALIZED
                  20000000    00000360     main_pem4f.oem4f (.vecs)

xdc.meta   0    00000000    000000f4     COPY SECTION
                  00000000    000000f4     main_pem4f.oem4f (xdc.meta)

__llvm_prf_cnts 
*          0    20000000    00000000     UNINITIALIZED

MODULE SUMMARY

       Module                       code    ro data   rw data
       ------                       ----    -------   -------
    .\
       main.obj                     3175    24        1024   
       paj7620.obj                  811     438       0      
       EK_TM4C1294XL.obj            596     120       302    
    +--+----------------------------+-------+---------+---------+
       Total:                       4582    582       1326   
                                                             
    C:\dev\workspace_v10\TI_RTOS_IoT_GestureBasedWeatherTracking\Debug\configPkg\package\cfg\
       main_pem4f.oem4f             3147    8406      168888 
    +--+----------------------------+-------+---------+---------+
       Total:                       3147    8406      168888 
                                                             
    C:/ti/tirtos_tivac_2_16_00_08/products/TivaWare_C_Series-2.1.1.71b/driverlib/ccs/Debug/driverlib.lib
       emac.obj                     756     24        0      
       gpio.obj                     584     144       0      
       sysctl.obj                   194     0         0      
       i2c.obj                      154     0         0      
       flash.obj                    20      0         0      
    +--+----------------------------+-------+---------+---------+
       Total:                       1708    168       0      
                                                             
    C:/ti/tirtos_tivac_2_16_00_08/products/tidrivers_tivac_2_16_00_08/packages/ti/drivers/lib/drivers_tivaware.aem4f
       EMACSnow.oem4f               2006    8         406    
       GPIOTiva.oem4f               764     156       153    
       I2CTiva.oem4f                798     28        0      
       I2C.oem4f                    130     16        4      
       EMAC.oem4f                   52      0         4      
    +--+----------------------------+-------+---------+---------+
       Total:                       3750    208       567    
                                                             
    C:\dev\workspace_v10\TI_RTOS_IoT_GestureBasedWeatherTracking\src\sysbios\sysbios.aem4f
       BIOS.obj                     10790   0         0      
       m3_Hwi_asm.obj               314     0         0      
       m3_TaskSupport_asm.obj       180     0         0      
       m3_Hwi_asm_switch.obj        118     0         0      
    +--+----------------------------+-------+---------+---------+
       Total:                       11402   0         0      
                                                             
    C:\ti\ccs1040\ccs\tools\compiler\ti-cgt-arm_20.2.5.LTS\lib\rtsv7M4_T_le_v4SPD16_eabi.lib
       _printfi.c.obj               4851    0         0      
       strtod.c.obj                 1120    200       0      
       mktime.c.obj                 672     96        0      
       fd_add_t2.asm.obj            438     0         0      
       trgmsg.c.obj                 108     0         288    
       localtim.c.obj               308     0         36     
       fd_div_t2.asm.obj            310     0         0      
       asctime.c.obj                108     152       28     
       s_scalbn.c.obj               272     0         0      
       strtoul.c.obj                272     0         0      
       fd_cmp_t2.asm.obj            268     0         0      
       ctype.c.obj                  0       257       0      
       fd_mul_t2.asm.obj            252     0         0      
       memcpy_t2.asm.obj            156     0         0      
       ull_div_t2.asm.obj           150     0         0      
       snprintf.c.obj               148     0         0      
       memset_t2.asm.obj            122     0         0      
       fd_tos_t2.asm.obj            110     0         0      
       ll_div_t2.asm.obj            110     0         0      
       copy_decompress_lzss.c.obj   104     0         0      
       s_frexp.c.obj                100     0         0      
       sprintf.c.obj                98      0         0      
       hostwrite.c.obj              88      0         0      
       _ltoa.c.obj                  84      0         0      
       atoi.c.obj                   76      0         0      
       cpy_tbl.c.obj                76      0         0      
       fd_toi_t2.asm.obj            72      0         0      
       strtok.c.obj                 64      0         4      
       u_divt2.asm.obj              64      0         0      
       strncasecmp.c.obj            60      0         0      
       fs_tod_t2.asm.obj            56      0         0      
       strncpy.c.obj                54      0         0      
       strstr.c.obj                 52      0         0      
       i_tofd_t2.asm.obj            46      0         0      
       strcasecmp.c.obj             46      0         0      
       strncmp.c.obj                44      0         0      
       strspn.c.obj                 42      0         0      
       strcspn.c.obj                36      0         0      
       _lock.c.obj                  26      0         8      
       strcat.c.obj                 30      0         0      
       memccpy.c.obj                28      0         0      
       s_copysign.c.obj             26      0         0      
       args_main.c.obj              24      0         0      
       strcmp.c.obj                 24      0         0      
       strchr.c.obj                 22      0         0      
       strcpy.c.obj                 20      0         0      
       strlen.c.obj                 20      0         0      
       atof.c.obj                   18      0         0      
       wcslen.c.obj                 18      0         0      
       tmzone.c.obj                 0       0         16     
       copy_decompress_none.c.obj   14      0         0      
       copy_zero_init.c.obj         12      0         0      
       ctime_.c.obj                 12      0         0      
       errno.c.obj                  8       0         4      
       hostopen.c.obj               0       0         8      
       exit.c.obj                   4       0         0      
       stkdepth_vars.c.obj          0       0         4      
       div0.asm.obj                 2       0         0      
    +--+----------------------------+-------+---------+---------+
       Total:                       11345   705       396    
                                                             
    C:\ti\tirtos_tivac_2_16_00_08\products\bios_6_45_01_29\packages\ti\catalog\arm\cortexm4\tiva\ce\lib\Boot.aem4f
       Boot_sysctl.oem4f            628     452       0      
       Boot.oem4f                   152     0         0      
    +--+----------------------------+-------+---------+---------+
       Total:                       780     452       0      
                                                             
    C:\ti\tirtos_tivac_2_16_00_08\products\bios_6_45_01_29\packages\ti\targets\arm\rtsarm\lib\auto_init.aem4f
       auto_init.oem4f              160     0         0      
    +--+----------------------------+-------+---------+---------+
       Total:                       160     0         0      
                                                             
    C:\ti\tirtos_tivac_2_16_00_08\products\bios_6_45_01_29\packages\ti\targets\arm\rtsarm\lib\boot.aem4f
       boot.oem4f                   88      0         0      
    +--+----------------------------+-------+---------+---------+
       Total:                       88      0         0      
                                                             
    C:\ti\tirtos_tivac_2_16_00_08\products\bios_6_45_01_29\packages\ti\targets\arm\rtsarm\lib\ti.targets.arm.rtsarm.aem4f
       System.oem4f                 1277    0         0      
       Text.oem4f                   672     0         0      
       Error.oem4f                  528     0         0      
       Core-mem.oem4f               358     0         0      
       Startup.oem4f                328     0         0      
       SysMin.oem4f                 248     0         0      
       Core-smem.oem4f              204     0         0      
       Memory.oem4f                 176     0         0      
       Assert.oem4f                 84      0         0      
       Core-params.oem4f            70      0         0      
       Core-label.oem4f             52      0         0      
       Registry.oem4f               32      0         0      
       Gate.oem4f                   28      0         0      
       xdc_noinit.oem4f             6       0         0      
    +--+----------------------------+-------+---------+---------+
       Total:                       4063    0         0      
                                                             
    C:\ti\tirtos_tivac_2_16_00_08\products\ndk_2_25_00_09\packages\ti\ndk\hal\ser_stub\lib\hal_ser_stub.aem4f
       llserstb.oem4f               10      0         0      
    +--+----------------------------+-------+---------+---------+
       Total:                       10      0         0      
                                                             
    C:\ti\tirtos_tivac_2_16_00_08\products\ndk_2_25_00_09\packages\ti\ndk\hal\timer_bios\lib\hal_timer_bios.aem4f
       lltimer.oem4f                252     0         28     
    +--+----------------------------+-------+---------+---------+
       Total:                       252     0         28     
                                                             
    C:\ti\tirtos_tivac_2_16_00_08\products\ndk_2_25_00_09\packages\ti\ndk\hal\userled_stub\lib\hal_userled_stub.aem4f
       llled.oem4f                  6       0         0      
    +--+----------------------------+-------+---------+---------+
       Total:                       6       0         0      
                                                             
    C:\ti\tirtos_tivac_2_16_00_08\products\ndk_2_25_00_09\packages\ti\ndk\netctrl\lib\netctrl_min_ipv4.aem4f
       netsrv.oem4f                 1122    0         352    
       netctrl.oem4f                884     0         60     
    +--+----------------------------+-------+---------+---------+
       Total:                       2006    0         412    
                                                             
    C:\ti\tirtos_tivac_2_16_00_08\products\ndk_2_25_00_09\packages\ti\ndk\nettools\lib\nettool_ipv4.aem4f
       dnscomn.oem4f                2964    0         2      
       config.oem4f                 1760    0         4      
       inetaddr.oem4f               1519    32        0      
       dnspkt.oem4f                 1342    0         0      
       dhcpsm.oem4f                 1028    0         0      
       ipaddr.oem4f                 598     0         4      
       dnsclnt.oem4f                600     0         0      
       dhcpbild.oem4f               508     0         0      
       dhcppkt.oem4f                462     0         0      
       dhcpmain.oem4f               406     0         0      
       dhcptags.oem4f               264     0         77     
       dhcpsock.oem4f               332     0         0      
    +--+----------------------------+-------+---------+---------+
       Total:                       11783   32        87     
                                                             
    C:\ti\tirtos_tivac_2_16_00_08\products\ndk_2_25_00_09\packages\ti\ndk\os\lib\os.aem4f
       mem.oem4f                    1312    0         148    
       task.oem4f                   1054    0         24     
       ossys.oem4f                  192     0         36     
       semaphore.oem4f              226     0         0      
    +--+----------------------------+-------+---------+---------+
       Total:                       2784    0         208    
                                                             
    C:\ti\tirtos_tivac_2_16_00_08\products\ndk_2_25_00_09\packages\ti\ndk\stack\lib\stk.aem4f
       tcpin.oem4f                  3312    0         0      
       sock.oem4f                   2870    0         0      
       tcpout.oem4f                 2608    0         11     
       igmp.oem4f                   1584    0         308    
       nimu.oem4f                   1549    0         100    
       sockpcb.oem4f                1422    0         24     
       fileuser.oem4f               1338    0         0      
       rtable.oem4f                 1138    0         24     
       node.oem4f                   1079    0         4      
       tcpprot.oem4f                1082    0         0      
       ipout.oem4f                  1032    0         0      
       udp.oem4f                    968     0         48     
       ipin.oem4f                   998     0         8      
       tcptime.oem4f                821     0         52     
       sb.oem4f                     826     0         0      
       icmpin.oem4f                 756     0         0      
       icmp.oem4f                   580     0         160    
       socket.oem4f                 730     0         0      
       ipfrag.oem4f                 712     0         4      
       rtc.oem4f                    592     62        60     
       sockint.oem4f                704     0         0      
       route.oem4f                  702     0         0      
       lliout.oem4f                 672     0         6      
       tcp.oem4f                    472     0         204    
       lli.oem4f                    652     0         8      
       bind.oem4f                   650     0         4      
       rawethsock.oem4f             626     0         0      
       lliin.oem4f                  592     0         4      
       pbm.oem4f                    574     0         16     
       exec.oem4f                   302     0         236    
       ip.oem4f                     378     0         120    
       file.oem4f                   466     0         0      
       pipe.oem4f                   460     0         0      
       vlan.oem4f                   396     0         40     
       raw.oem4f                    400     0         16     
       timer.oem4f                  258     0         8      
       raweth.oem4f                 224     0         16     
       rawethsock_pcb.oem4f         236     0         4      
       sockprot.oem4f               98      84        0      
       listlib.oem4f                110     0         0      
       rawethsock_prot.oem4f        8       0         0      
       nat.oem4f                    2       0         0      
    +--+----------------------------+-------+---------+---------+
       Total:                       34979   146       1485   
                                                             
    C:\ti\tirtos_tivac_2_16_00_08\products\ns_1_11_00_10\packages\ti\net\http\lib\http_ndk.aem4f
       httpcli.oem4f                3116    8         16     
       httpstd.oem4f                0       880       284    
    +--+----------------------------+-------+---------+---------+
       Total:                       3116    888       300    
                                                             
    C:\ti\tirtos_tivac_2_16_00_08\products\ns_1_11_00_10\packages\ti\net\lib\network_ndk.aem4f
       ssock.oem4f                  276     0         0      
    +--+----------------------------+-------+---------+---------+
       Total:                       276     0         0      
                                                             
    C:\ti\tirtos_tivac_2_16_00_08\products\ns_1_11_00_10\packages\ti\net\sntp\lib\sntp_ndk.aem4f
       sntp.oem4f                   2421    0         48     
    +--+----------------------------+-------+---------+---------+
       Total:                       2421    0         48     
                                                             
       Stack:                       0       0         4096   
       Linker Generated:            0       1356      0      
    +--+----------------------------+-------+---------+---------+
       Grand Total:                 98658   12943     177841 


LINKER GENERATED COPY TABLES

__TI_cinit_table @ 0001b470 records: 3, size/record: 8, table size: 24
	.data: load addr=0001af38, load size=00000518 bytes, run addr=2002ab38, run size=00000b9c bytes, compression=lzss
	.bss: load addr=0001b460, load size=00000008 bytes, run addr=20000380, run size=000297b8 bytes, compression=zero_init
	.vecs: load addr=0001b468, load size=00000008 bytes, run addr=20000000, run size=00000360 bytes, compression=zero_init


LINKER GENERATED HANDLER TABLE

__TI_handler_table @ 0001b450 records: 3, size/record: 4, table size: 12
	index: 0, handler: __TI_decompress_lzss
	index: 1, handler: __TI_decompress_none
	index: 2, handler: __TI_zero_init


GLOBAL SYMBOLS: SORTED ALPHABETICALLY BY Name 

address   name                                                                 
-------   ----                                                                 
00016bfd  BindFindByHost                                                       
00017311  BindFindByIF                                                         
00016911  BindFindByNet                                                        
0001303d  BindFree                                                             
00017f19  BindGetFirst                                                         
00006115  BindGetIF                                                            
00016c21  BindGetIFByDBCast                                                    
00017545  BindGetIP                                                            
0000833d  BindGetNext                                                          
00017d41  BindIF2IPHost                                                        
00017d51  BindIFNet2IPHost                                                     
00017a91  BindIPHost2IF                                                        
00008729  BindNew                                                              
200299cc  BlockCount                                                           
200299e8  BlockMax                                                             
00013f6d  C$$EXIT                                                              
00015627  C$$IO$$                                                              
000089ad  CfgAddEntry                                                          
00013459  CfgEntryDeRef                                                        
000150a7  CfgEntryGetData                                                      
00016b19  CfgEntryInfo                                                         
00016fa9  CfgEntryRef                                                          
0000f405  CfgExecute                                                           
000120f1  CfgFree                                                              
0000ff79  CfgGetEntry                                                          
00012669  CfgGetEntryCnt                                                       
00015db9  CfgGetImmediate                                                      
00010795  CfgGetNextEntry                                                      
00014137  CfgNew                                                               
0000f241  CfgRemoveEntry                                                       
00017f25  CfgSetDefault                                                        
00012a85  CfgSetExecuteOrder                                                   
00015939  CfgSetService                                                        
0001a740  Code2Err                                                             
00014f31  DHCPClose                                                            
00008095  DHCPOpen                                                             
00014bed  DNSBuildRequest                                                      
0000da2d  DNSGetHostByName                                                     
00008fd9  DNSGetReply                                                          
00013851  DNSReplyFree                                                         
0000f769  DNSResolveQuery                                                      
00011971  DbgPrintf                                                            
00009711  EK_TM4C1294XL_initEMAC                                               
0001813b  EK_TM4C1294XL_initGPIO                                               
0000df5d  EK_TM4C1294XL_initGeneral                                            
00011e19  EK_TM4C1294XL_initI2C                                                
00016023  EMACAddrSet                                                          
00015471  EMACConfigGet                                                        
0001596d  EMACConfigSet                                                        
00017d61  EMACFrameFilterSet                                                   
00010c71  EMACInit                                                             
000159a1  EMACIntClear                                                         
000150e3  EMACIntDisable                                                       
000153fd  EMACIntEnable                                                        
000164a1  EMACIntStatus                                                        
000130ed  EMACPHYConfigSet                                                     
00016b3f  EMACPHYRead                                                          
00016b65  EMACPHYWrite                                                         
00017989  EMACReset                                                            
00007dcb  EMACRxDMADescriptorListSet                                           
0001799f  EMACRxEnable                                                         
0000d659  EMACSnow_InitDMADescriptors                                          
000064dd  EMACSnow_NIMUInit                                                    
000159d5  EMACSnow_emacPoll                                                    
000176b9  EMACSnow_emacSend                                                    
0000abe9  EMACSnow_emacStart                                                   
00010319  EMACSnow_emacStop                                                    
00017eb1  EMACSnow_emacioctl                                                   
0001ad90  EMACSnow_fxnTable                                                    
00010811  EMACSnow_hwiIntFxn                                                   
00017f31  EMACSnow_init                                                        
00015a09  EMACSnow_isLinkUp                                                    
00016c45  EMACSnow_pkt_service                                                 
0000fffd  EMACSnow_processPhyInterrupt                                         
00015f7b  EMACTxDMADescriptorListSet                                           
00018143  EMACTxDMAPollDemand                                                  
000179b5  EMACTxEnable                                                         
0001ac64  EMAC_config                                                          
00015a3d  EMAC_init                                                            
00015a71  ExecClose                                                            
00017d71  ExecHRef                                                             
00017ebf  ExecLowResource                                                      
0000ecd9  ExecOpen                                                             
00016c8d  ExecTimer                                                            
000164cd  FdSignalEvent                                                        
000126c9  FdWaitEvent                                                          
00017aa5  FlashUserGet                                                         
000167e9  GPIODirModeSet                                                       
00015fb3  GPIOIntClear                                                         
00017ecd  GPIOIntStatus                                                        
00013355  GPIOIntTypeSet                                                       
000095df  GPIOPadConfigSet                                                     
00014181  GPIOPinConfigure                                                     
00017c5d  GPIOPinTypeEthernetLED                                               
00017c6f  GPIOPinTypeI2C                                                       
00017c81  GPIOPinTypeI2CSCL                                                    
00015feb  GPIOPinWrite                                                         
0001ad24  GPIOTiva_config                                                      
00012155  GPIO_hwiIntFxn                                                       
0000f7f5  GPIO_init                                                            
00013949  GPIO_setCallback                                                     
000081ed  GPIO_setConfig                                                       
00013999  GPIO_write                                                           
00013145  HOSTwrite                                                            
00009f15  HTTPCli_connect                                                      
00008e9d  HTTPCli_construct                                                    
000179cb  HTTPCli_destruct                                                     
00016cb1  HTTPCli_disconnect                                                   
0000adf9  HTTPCli_getResponseField                                             
00017ab9  HTTPCli_getResponseStatus                                            
0000c41d  HTTPCli_initSockAddr                                                 
000179e1  HTTPCli_readRawResponseBody                                          
00014c2d  HTTPCli_readResponseBody                                             
000134ad  HTTPCli_sendField                                                    
000112e9  HTTPCli_sendRequest                                                  
000180cd  HTTPCli_setRequestFields                                             
000180d7  HTTPCli_setResponseFields                                            
2002acd0  HTTPStd_CONNECT                                                      
2002acd8  HTTPStd_CONTENT_TYPE_APPLET                                          
2002acdc  HTTPStd_CONTENT_TYPE_AU                                              
2002ace0  HTTPStd_CONTENT_TYPE_CSS                                             
2002ace4  HTTPStd_CONTENT_TYPE_DOC                                             
2002ace8  HTTPStd_CONTENT_TYPE_GIF                                             
2002acec  HTTPStd_CONTENT_TYPE_HTML                                            
2002acf0  HTTPStd_CONTENT_TYPE_JPG                                             
2002acf4  HTTPStd_CONTENT_TYPE_MPEG                                            
2002acf8  HTTPStd_CONTENT_TYPE_PDF                                             
2002ad04  HTTPStd_CONTENT_TYPE_PLAIN                                           
2002acfc  HTTPStd_CONTENT_TYPE_WAV                                             
2002ad00  HTTPStd_CONTENT_TYPE_ZIP                                             
2002accc  HTTPStd_DELETE                                                       
2002ad08  HTTPStd_FIELD_NAME_ACCEPT                                            
2002ad0c  HTTPStd_FIELD_NAME_ACCEPT_CHARSET                                    
2002ad10  HTTPStd_FIELD_NAME_ACCEPT_ENCODING                                   
2002ad14  HTTPStd_FIELD_NAME_ACCEPT_LANGUAGE                                   
2002ad18  HTTPStd_FIELD_NAME_ACCEPT_RANGES                                     
2002ad1c  HTTPStd_FIELD_NAME_AGE                                               
2002ad20  HTTPStd_FIELD_NAME_ALLOW                                             
2002ad24  HTTPStd_FIELD_NAME_AUTHORIZATION                                     
2002ad28  HTTPStd_FIELD_NAME_CACHE_CONTROL                                     
2002ad2c  HTTPStd_FIELD_NAME_CONNECTION                                        
2002ad30  HTTPStd_FIELD_NAME_CONTENT_ENCODING                                  
2002ad34  HTTPStd_FIELD_NAME_CONTENT_LANGUAGE                                  
2002ad38  HTTPStd_FIELD_NAME_CONTENT_LENGTH                                    
2002ad3c  HTTPStd_FIELD_NAME_CONTENT_LOCATION                                  
2002ad40  HTTPStd_FIELD_NAME_CONTENT_MD5                                       
2002ad44  HTTPStd_FIELD_NAME_CONTENT_RANGE                                     
2002ad48  HTTPStd_FIELD_NAME_CONTENT_TYPE                                      
2002ad4c  HTTPStd_FIELD_NAME_COOKIE                                            
2002ad50  HTTPStd_FIELD_NAME_DATE                                              
2002ad54  HTTPStd_FIELD_NAME_ETAG                                              
2002ad58  HTTPStd_FIELD_NAME_EXPECT                                            
2002ad5c  HTTPStd_FIELD_NAME_EXPIRES                                           
2002ad60  HTTPStd_FIELD_NAME_FROM                                              
2002ad64  HTTPStd_FIELD_NAME_HOST                                              
2002ad68  HTTPStd_FIELD_NAME_IF_MATCH                                          
2002ad6c  HTTPStd_FIELD_NAME_IF_MODIFIED_SINCE                                 
2002ad70  HTTPStd_FIELD_NAME_IF_NONE_MATCH                                     
2002ad74  HTTPStd_FIELD_NAME_IF_RANGE                                          
2002ad78  HTTPStd_FIELD_NAME_IF_UNMODIFIED_SINCE                               
2002ad7c  HTTPStd_FIELD_NAME_LAST_MODIFIED                                     
2002ad80  HTTPStd_FIELD_NAME_LOCATION                                          
2002ad84  HTTPStd_FIELD_NAME_MAX_FORWARDS                                      
2002ad88  HTTPStd_FIELD_NAME_ORIGIN                                            
2002ad8c  HTTPStd_FIELD_NAME_PRAGMA                                            
2002ad90  HTTPStd_FIELD_NAME_PROXY_AUTHENTICATE                                
2002ad94  HTTPStd_FIELD_NAME_PROXY_AUTHORIZATION                               
2002ad98  HTTPStd_FIELD_NAME_RANGE                                             
2002ad9c  HTTPStd_FIELD_NAME_REFERER                                           
2002ada0  HTTPStd_FIELD_NAME_RETRY_AFTER                                       
2002ada4  HTTPStd_FIELD_NAME_SERVER                                            
2002ada8  HTTPStd_FIELD_NAME_TE                                                
2002adac  HTTPStd_FIELD_NAME_TRAILER                                           
2002adb0  HTTPStd_FIELD_NAME_TRANSFER_ENCODING                                 
2002adb4  HTTPStd_FIELD_NAME_UPGRADE                                           
2002adb8  HTTPStd_FIELD_NAME_USER_AGENT                                        
2002adbc  HTTPStd_FIELD_NAME_VARY                                              
2002adc0  HTTPStd_FIELD_NAME_VIA                                               
2002adc8  HTTPStd_FIELD_NAME_WARNING                                           
2002adc4  HTTPStd_FIELD_NAME_WWW_AUTHENTICATE                                  
2002adcc  HTTPStd_FIELD_NAME_X_FORWARDED_FOR                                   
2002acb8  HTTPStd_GET                                                          
2002acc0  HTTPStd_HEAD                                                         
2002acc4  HTTPStd_OPTIONS                                                      
2002acd4  HTTPStd_PATCH                                                        
2002acbc  HTTPStd_POST                                                         
2002acc8  HTTPStd_PUT                                                          
2002acb4  HTTPStd_VER                                                          
0000dddd  I2CMasterControl                                                     
0000de9d  I2CMasterDataGet                                                     
0000e2ed  I2CMasterDataPut                                                     
000180e1  I2CMasterDisable                                                     
000180eb  I2CMasterEnable                                                      
000179f7  I2CMasterErr                                                         
000141c9  I2CMasterInitExpClk                                                  
0001814b  I2CMasterIntClear                                                    
00017663  I2CMasterIntDisable                                                  
00017cdb  I2CMasterIntEnable                                                   
00018153  I2CMasterSlaveAddrSet                                                
00015829  I2CTiva_close                                                        
00017cf3  I2CTiva_control                                                      
0001ac30  I2CTiva_fxnTable                                                     
000180f5  I2CTiva_init                                                         
0000c505  I2CTiva_open                                                         
00010699  I2CTiva_transfer                                                     
00017d81  I2C_Params_init                                                      
0001a9d4  I2C_config                                                           
0001ad60  I2C_defaultParams                                                    
000154a9  I2C_init                                                             
00016085  I2C_open                                                             
000180ff  I2C_transfer                                                         
000147a5  ICMPChecksum                                                         
00009245  ICMPGenPacket                                                        
000056a9  ICMPInput                                                            
0000d005  ICMPSendRtAdv                                                        
00006ee1  IGMPInput                                                            
00010909  IGMPJoin                                                             
00013501  IGMPLeave                                                            
00011031  IGMPLeaveHostGroup                                                   
0000f495  IGMPMsg                                                              
000164f9  IGMPTestGroup                                                        
0001585f  IPChecksum                                                           
0000e9bd  IPGetRoute                                                           
0000f881  IPMsg                                                                
0000545d  IPReasm                                                              
000147e9  IPReasmFree                                                          
000154e1  IPReasmTimeout                                                       
000176d1  IPRtChange                                                           
00003449  IPRxPacket                                                           
00002cb9  IPTxPacket                                                           
000016f7  LED_TOGGLE                                                           
00016939  LLIFree                                                              
0000bcb9  LLIGenArpPacket                                                      
0001482d  LLIGetValidTime                                                      
00014211  LLIMsg                                                               
00010419  LLINew                                                               
000069fd  LLIRxPacket                                                          
0000684d  LLITxIpPacket                                                        
00014c6d  LLIValidateRoute                                                     
00017035  NC_BootComplete                                                      
00017d91  NC_IPUpdate                                                          
00007529  NC_NetStart                                                          
00017acd  NC_NetStop                                                           
00016961  NC_SystemClose                                                       
0000ef49  NC_SystemOpen                                                        
000139e9  NDK_bind                                                             
00013a39  NDK_connect                                                          
00016525  NDK_hookCreate                                                       
00017ae1  NDK_hookExit                                                         
00017f3d  NDK_hookInit                                                         
000115f9  NDK_recv                                                             
00011359  NDK_send                                                             
00010ce9  NDK_sendto                                                           
00010985  NDK_setsockopt                                                       
00011e81  NDK_socket                                                           
00017349  NDK_sprintf                                                          
0000e715  NDK_vsprintf                                                         
0000eb9d  NIMUAddEthernetHeader                                                
00017365  NIMUAddHeader                                                        
00016989  NIMUCreatePacket                                                     
2002b59c  NIMUDeviceTable                                                      
00016cd5  NIMUFindByIndex                                                      
00015aa5  NIMUFindByName                                                       
00017da1  NIMUGetRsvdSizeInfo                                                  
00015ad9  NIMUInit                                                             
0000a25d  NIMUIoctl                                                            
000169b1  NIMUPacketService                                                    
0001657d  NIMUPacketServiceCheck                                               
0000cf31  NIMUReceivePacket                                                    
00010a01  NIMURegister                                                         
00017af5  NIMUSendPacket                                                       
00017f49  NIMUSetRsvdSizeInfo                                                  
000110a5  NIMUShutdown                                                         
00012729  NIMUUnregister                                                       
00010499  NS_BootTask                                                          
000160b5  NS_PreBoot                                                           
00003b3f  NatMsg                                                               
0000c959  NodeAdd                                                              
00013cb9  NodeDeRef                                                            
00012789  NodeFind                                                             
00015519  NodeGetRt                                                            
0000f2d5  NodeSetRt                                                            
0000a485  NodeTreeFree                                                         
000119dd  NodeTreeNew                                                          
00014259  NodeWalk                                                             
00017f55  NotifyLowResource                                                    
00013da5  NtAddNetwork                                                         
00007079  NtGetPublicHost                                                      
00014601  NtIfIdx2Ip                                                           
00017b09  NtRemoveNetwork                                                      
000181d1  OEMSysCritOff                                                        
00018009  OEMSysCritOn                                                         
00016813  PBMQ_deq                                                             
000121b9  PBMQ_enq                                                             
20029a98  PBMQ_free                                                            
00010519  PBM_alloc                                                            
00017f61  PBM_close                                                            
00014cad  PBM_copy                                                             
00010a7d  PBM_free                                                             
00011ee9  PBM_open                                                             
2002b3d8  PITCount                                                             
2002b3e0  PITHigh                                                              
2002b3dc  PITUsed                                                              
20029a04  PageCount                                                            
20029a20  PageMax                                                              
00015deb  PipeCheck                                                            
000165a9  PipeClose                                                            
0000b601  PipeRecv                                                             
00010f41  PipeSend                                                             
00016cf9  RTCAddHook                                                           
000127e9  RTCMsg                                                               
00017075  RTCRemoveHook                                                        
00007985  RTCReport                                                            
00011119  RawEthRxPacket                                                       
00012e21  RawEthSockCheck                                                      
00016b8b  RawEthSockClose                                                      
0000d401  RawEthSockNew                                                        
00015b0d  RawEthSockNotify                                                     
00013555  RawEthSockPcbAttach                                                  
000176e9  RawEthSockPcbCleanup                                                 
000142a1  RawEthSockPcbDetach                                                  
00016d1d  RawEthSockPcbFind                                                    
00017b1d  RawEthSockPcbInit                                                    
0000f36d  RawEthSockPrAttach                                                   
0000f645  RawEthSockPrDetach                                                   
00014647  RawEthSockSend                                                       
0000e50b  RawEthSockSet                                                        
00011a49  RawEthTxPacket                                                       
0000a595  RawInput                                                             
00010599  RawOutput                                                            
00014871  RouteMsg                                                             
0000aadd  RtCreate                                                             
00015e1d  RtDeRef                                                              
0000a8c5  RtFind                                                               
00012e7b  RtRedirect                                                           
00012969  RtRemove                                                             
00015e4f  RtSetFailure                                                         
00016d65  RtSetTimeout                                                         
0001515d  RtWalkBegin                                                          
000148b5  RtWalkEnd                                                            
00011669  RtWalkNext                                                           
00015e81  SBFlush                                                              
000163e9  SBFree                                                               
00012605  SBNew                                                                
00007c61  SBRead                                                               
00015eb3  SBSetMax                                                             
0000c6c5  SBWrite                                                              
UNDEFED   SHT$$INIT_ARRAY$$Base                                                
UNDEFED   SHT$$INIT_ARRAY$$Limit                                               
000165d5  SNTP_forceTimeSync                                                   
000135a9  SNTP_setServers                                                      
000030c1  SNTP_start                                                           
000131f5  SemCreate                                                            
00011275  SemCreateBinary                                                      
00017f6d  SemDelete                                                            
0001020d  SemPend                                                              
00010b75  SemPost                                                              
00011c65  SemReset                                                             
000160e5  SockBind                                                             
0000fd61  SockCheck                                                            
000135fd  SockCleanPcb                                                         
0000bda9  SockClose                                                            
00007f35  SockConnect                                                          
0000e871  SockCreatePacket                                                     
00014057  SockDisconnect                                                       
00015ee5  SockIntAbort                                                         
00007211  SockNew                                                              
00008ae9  SockNotify                                                           
00016601  SockPcbAttach                                                        
0000ccb5  SockPcbBind                                                          
00016d89  SockPcbCleanup                                                       
0001118d  SockPcbConnect                                                       
0000fc51  SockPcbCtlError                                                      
000148f9  SockPcbDetach                                                        
00009965  SockPcbResolve                                                       
000142e9  SockPcbResolveChain                                                  
00014ced  SockPcbRtChange                                                      
00017c93  SockPrAttach                                                         
00015b41  SockPrCtlError                                                       
00017381  SockPrDetach                                                         
00005f21  SockRecv                                                             
00008c25  SockSend                                                             
00004d09  SockSet                                                              
00017ca5  SockSetOOBData                                                       
0001755f  SockSetOOBMark                                                       
000114a9  SockShutdown                                                         
0001221d  SockSpawnAbort                                                       
00013df1  SockValidateRoute                                                    
00017b31  Ssock_construct                                                      
0001739d  Ssock_destruct                                                       
00012475  Ssock_getSocket                                                      
00015895  Ssock_recv                                                           
0000e7c5  Ssock_send                                                           
000181a9  SysCtlDelay                                                          
00015b75  SysCtlPeripheralEnable                                               
00015551  SysCtlPeripheralReady                                                
00013ad9  SysCtlPeripheralReset                                                
0001816b  TaskBlock                                                            
00014faf  TaskCreate                                                           
000173b9  TaskDestroy                                                          
0000dea1  TaskExit                                                             
0000b8e9  TaskGetEnv                                                           
00012cad  TaskSelf                                                             
0000c24d  TaskSetEnv                                                           
0001374d  TaskSetPri                                                           
0000d591  TaskSleep                                                            
00012849  TcpChecksum                                                          
00015589  TcpClose                                                             
00014331  TcpDrop                                                              
0000a02d  TcpGenPacket                                                         
00000041  TcpInput                                                             
000016f9  TcpOutput                                                            
00010081  TcpPrAttach                                                          
00015199  TcpPrConnect                                                         
0001468d  TcpPrCtlError                                                        
000138a3  TcpPrDetach                                                          
00014fed  TcpPrDisconnect                                                      
00011dad  TcpPrInherit                                                         
000181af  TcpPrRecv                                                            
00014d2d  TcpPrSend                                                            
00014b69  TcpPrSendOOB                                                         
0000ca31  TcpPrSetOption                                                       
000151d5  TcpSetPersist                                                        
000177d9  TcpTimeoutAdd                                                        
0000886d  TcpTimeoutCheck                                                      
0000e185  TcpTimeoutKeep                                                       
00013651  TcpTimeoutPersist                                                    
00017095  TcpTimeoutRemove                                                     
0000c5e5  TcpTimeoutRexmt                                                      
00010fb9  TcpTimeoutSackRexmt                                                  
00016dad  TcpTimeoutWait2                                                      
00012ed5  TcpValidateMetrics                                                   
00010d61  TcpXmitTimer                                                         
00017b45  TimerFree                                                            
000155c1  TimerHSTick                                                          
000140a1  TimerNew                                                             
00011ab5  UdpChecksum                                                          
000058e5  UdpInput                                                             
00009a89  UdpOutput                                                            
0000dba9  VLANDeinit                                                           
00016a51  VLANInit                                                             
00012a25  VLANReceivePacket                                                    
20029778  _ICMPIn                                                              
2002b5cc  _ICMPInErrors                                                        
200297c4  _ICMPOut                                                             
2002b5d0  _ICMPOutErrors                                                       
2002b568  _IGMPForceVersion1                                                   
20029af8  _IGMPInDiscard                                                       
20029afc  _IGMPInQuery                                                         
20029b00  _IGMPInQueryGroup                                                    
20029b04  _IGMPInResponse                                                      
20029b08  _IGMPOutResponse                                                     
2002b5d4  _IPExecuting                                                         
2002b6b0  _IPReasmPtr                                                          
00014379  _LLIExpListInsert                                                    
0001662d  _LLIExpListRemove                                                    
0000e0cd  _LLITimeoutCheck                                                     
00016659  _LLITimeoutFlush                                                     
000143c1  _RtExpListInsert                                                     
00016685  _RtExpListRemove                                                     
00011f51  _RtNodeInsert                                                        
0001524d  _RtNodeRemove                                                        
00004493  _TaskInit                                                            
00004a67  _TaskShutdown                                                        
00000000  __ASM__                                                              
20028f58  __CIOBUF_                                                            
00000072  __ISA__                                                              
00000085  __PLAT__                                                             
2002ab38  __STACK_END                                                          
00001000  __STACK_SIZE                                                         
000000a6  __TARG__                                                             
0001b470  __TI_CINIT_Base                                                      
0001b488  __TI_CINIT_Limit                                                     
0001b450  __TI_Handler_Table_Base                                              
0001b45c  __TI_Handler_Table_Limit                                             
0000ea5d  __TI_auto_init                                                       
00011fb9  __TI_decompress_lzss                                                 
00017edb  __TI_decompress_none                                                 
000136a5  __TI_ltoa                                                            
ffffffff  __TI_pprof_out_hndl                                                  
00000ca9  __TI_printfi                                                         
ffffffff  __TI_prof_data_size                                                  
ffffffff  __TI_prof_data_start                                                 
00015ba9  __TI_readmsg                                                         
0001af38  __TI_static_base__                                                   
000155f9  __TI_writemsg                                                        
00017fb5  __TI_zero_init                                                       
000000cc  __TRDR__                                                             
0000fe6d  __aeabi_cdcmpeq                                                      
0000fe6d  __aeabi_cdcmple                                                      
0000fef3  __aeabi_cdrcmple                                                     
000117b3  __aeabi_d2f                                                          
00014451  __aeabi_d2iz                                                         
0000669f  __aeabi_dadd                                                         
0000910f  __aeabi_ddiv                                                         
0000b505  __aeabi_dmul                                                         
00006695  __aeabi_dsub                                                         
00018175  __aeabi_errno_addr                                                   
000156d9  __aeabi_f2d                                                          
00016445  __aeabi_i2d                                                          
0000aeff  __aeabi_idiv0                                                        
0000aeff  __aeabi_ldiv0                                                        
00011821  __aeabi_ldivmod                                                      
00010bf5  __aeabi_memclr                                                       
00010bf5  __aeabi_memclr4                                                      
00010bf5  __aeabi_memclr8                                                      
0000ee11  __aeabi_memcpy                                                       
0000ee11  __aeabi_memcpy4                                                      
0000ee11  __aeabi_memcpy8                                                      
00010bf7  __aeabi_memset                                                       
00010bf7  __aeabi_memset4                                                      
00010bf7  __aeabi_memset8                                                      
00014dad  __aeabi_uidiv                                                        
00014dad  __aeabi_uidivmod                                                     
0000f1a9  __aeabi_uldivmod                                                     
ffffffff  __binit__                                                            
ffffffff  __c_args__                                                           
00017f79  __ctime32                                                            
00009379  __localtime32                                                        
00004a69  __mktime32                                                           
20029b38  __stack                                                              
20000000  __start___llvm_prf_cnts                                              
20000000  __stop___llvm_prf_cnts                                               
000181b5  __xdc__init                                                          
2002b5b8  __xdc__init__addr                                                    
000177f1  _args_main                                                           
00013095  _c_int00                                                             
0001a210  _ctypes_                                                             
2002add0  _ipcfg                                                               
000137a5  _llSerialInit                                                        
0000545b  _llSerialServiceCheck                                                
0000684b  _llSerialShutdown                                                    
00015289  _llTimerInit                                                         
00017f85  _llTimerShutdown                                                     
00006edf  _llUserLedInit                                                       
00007527  _llUserLedShutdown                                                   
2002b594  _lock                                                                
0000f90d  _mmInit                                                              
0000970f  _nop                                                                 
2002b390  _oscfg                                                               
00017f91  _register_lock                                                       
00017f9d  _register_unlock                                                     
2002b530  _tz                                                                  
2002b598  _unlock                                                              
00013f6d  abort                                                                
00011b21  asctime                                                              
00017cb7  atof                                                                 
00013e3d  atoi                                                                 
ffffffff  binit                                                                
00013e89  copy_in                                                              
00017579  copysign                                                             
00017579  copysignl                                                            
00017f79  ctime                                                                
20028d58  data                                                                 
20029850  desc                                                                 
00012f2f  dhcpBuildDecline                                                     
00015631  dhcpBuildDiscover                                                    
000128a9  dhcpBuildOptions                                                     
0000ec3b  dhcpBuildRequest                                                     
00011519  dhcpDecodeType                                                       
00015669  dhcpOptionsClear                                                     
0000b005  dhcpPacketProcess                                                    
00016a79  dhcpPacketReceive                                                    
00016145  dhcpPacketSend                                                       
00017839  dhcpSocketClose                                                      
0000c7a1  dhcpSocketOpen                                                       
0000c87d  dhcpState                                                            
0000d269  dhcpVerifyMessage                                                    
0001ad70  emacHWAttrs                                                          
20029ac4  emacObjects                                                          
2002b248  enablePrefetch                                                       
2002b6a0  errno                                                                
00010717  fdClose                                                              
00014bab  fdCloseSession                                                       
00017279  fdError                                                              
00010dd9  fdOpenSession                                                        
000051fd  fdPoll                                                               
000073a1  fdSelect                                                             
00017851  fdint_clearevent                                                     
00017a0d  fdint_freefdt                                                        
00017593  fdint_getfdt                                                         
00014409  fdint_lockfd                                                         
000166b1  fdint_setevent                                                       
00018113  fdint_signalevent                                                    
0001811d  fdint_signaltimeout                                                  
00015069  fdint_unlockfd                                                       
000156a1  fdint_waitevent                                                      
00016417  ff_memalloc                                                          
000175ad  ff_memfree                                                           
000175ad  free                                                                 
00017869  freeaddrinfo                                                         
00012281  frexp                                                                
00012281  frexpl                                                               
20029b0c  g_ulStatus                                                           
0000ed75  getHumTask                                                           
0001a918  getHumTaskHandle                                                     
0000ce5d  getLocalTime                                                         
0000bf89  getTempTask                                                          
0001a91c  getTempTaskHandle                                                    
00004495  getaddrinfo                                                          
2002b5a4  gpioCallbackFunctions                                                
2002b540  gpioPinConfigs                                                       
00003e8d  httpTask                                                             
20029890  hum                                                                  
0001ac94  i2cTivaHWAttrs                                                       
20029178  i2cTivaObjects                                                       
00017cc9  inet_addr                                                            
0000b107  inet_aton                                                            
00010af9  inet_pton                                                            
00019f38  initRegisterArray                                                    
20024a98  ips                                                                  
2002b5b0  isRight                                                              
0000a6a5  ldexp                                                                
0000a6a5  ldexpl                                                               
00017881  list_add                                                             
00013fbd  list_get_head                                                        
000149c5  list_get_next                                                        
00017297  list_remove                                                          
00016175  list_remove_node                                                     
0000af01  llEnter                                                              
00010e51  llExit                                                               
0000abe7  llSerialService                                                      
00017fc1  llTimerGetStartTime                                                  
00014981  llTimerGetTime                                                       
000122e5  llTimerTick                                                          
00009379  localtime                                                            
2002b67c  macAddress                                                           
000140ed  main                                                                 
2002b6a4  main_func_sp                                                         
00016417  malloc                                                               
000175ad  mem_Free                                                             
000173f1  memccpy                                                              
0000ee11  memcpy                                                               
00010bfd  memset                                                               
00004a69  mktime                                                               
00006ba9  mmAlloc                                                              
0000f525  mmBulkAlloc                                                          
00010105  mmBulkFree                                                           
00012f89  mmCopy                                                               
00010189  mmFree                                                               
000146d3  mmZeroInit                                                           
20029278  msg                                                                  
0000dc65  netIPAddrHook                                                        
20029714  nimu_mcb                                                             
20029910  ntpServers                                                           
00017e51  osi_TaskDisable                                                      
00017de1  osi_start                                                            
00005d21  paj7620Init                                                          
00012b99  paj7620ReadReg                                                       
0001324d  paj7620SelectBank                                                    
0000a371  paj7620Task                                                          
0001a920  paj7620TaskHandle                                                    
00010ec9  paj7620WriteReg                                                      
20029acc  parmbuf                                                              
00010619  parseString                                                          
2002b24c  phyCounter                                                           
00015901  printError                                                           
2002b368  pstrMsgName                                                          
2002b5f0  ptTimeFirst                                                          
20029b20  raweth_pcb                                                           
20029a78  raweths                                                              
20029a88  raws                                                                 
0000a6a5  scalbn                                                               
0000a6a5  scalbnl                                                              
0001a914  semHttp                                                              
0001a910  semLeft                                                              
0001a90c  semRight                                                             
0001a908  semTcp                                                               
00009cd1  sendData2Server                                                      
00013ed5  snprintf                                                             
0000a9d1  socketTask                                                           
00014ded  sprintf                                                              
0000769d  startNTP                                                             
20029a3c  stkEvent                                                             
00016473  strcasecmp                                                           
000172d3  strcat                                                               
00017a23  strchr                                                               
00017899  strcmp                                                               
00017b81  strcpy                                                               
00016e19  strcspn                                                              
00015c11  stricmp                                                              
00017b95  strlen                                                               
000152c5  strncasecmp                                                          
00016709  strncmp                                                              
000158cb  strncpy                                                              
000168bb  strspn                                                               
00015c45  strstr                                                               
00002429  strtod                                                               
00014e2d  strtok                                                               
00002429  strtold                                                              
0000a7b5  strtoul                                                              
2002b5ec  tcp_iss                                                              
20029378  tcps                                                                 
200298d0  temp                                                                 
0001a4c4  ti_catalog_arm_cortexm4_tiva_ce_Boot_A_mustNotUseEnhancedClockMode__C
0001adc8  ti_catalog_arm_cortexm4_tiva_ce_Boot_Module__diagsEnabled__C         
0001adcc  ti_catalog_arm_cortexm4_tiva_ce_Boot_Module__diagsIncluded__C        
0001add0  ti_catalog_arm_cortexm4_tiva_ce_Boot_Module__diagsMask__C            
00019bc6  ti_catalog_arm_cortexm4_tiva_ce_Boot_Module__id__C                   
00017d31  ti_catalog_arm_cortexm4_tiva_ce_Boot_init__I                         
00005b1d  ti_catalog_arm_cortexm4_tiva_ce_Boot_sysCtlClockFreqSetI__I          
0000f079  ti_catalog_arm_cortexm4_tiva_ce_Boot_sysCtlClockFreqSet__E           
2002b5b4  ti_ndk_config_Global_HostName                                        
2002b45c  ti_ndk_config_Global_Id2Size                                         
0001a8fc  ti_ndk_config_Global_largest                                         
0001a900  ti_ndk_config_Global_numFrameBuf                                     
20024b00  ti_ndk_config_Global_pBufMem                                         
20028700  ti_ndk_config_Global_pHdrMem                                         
20016380  ti_ndk_config_Global_pit                                             
20016498  ti_ndk_config_Global_pitBuffer                                       
0001a8f4  ti_ndk_config_Global_rawPageCount                                    
0001a8f0  ti_ndk_config_Global_rawPageSize                                     
00012909  ti_ndk_config_Global_serviceReport                                   
0001a904  ti_ndk_config_Global_sizeFrameBuf                                    
0001a8f8  ti_ndk_config_Global_smallest                                        
00009df5  ti_ndk_config_Global_stackThread                                     
0001740d  ti_ndk_config_global_taskCreateHook                                  
00017ba9  ti_ndk_config_global_taskExitHook                                    
00011bf9  ti_ndk_config_ip_init                                                
00012fe3  ti_ndk_config_tcp_init                                               
2002b3fc  ti_sysbios_BIOS_Module__state__V                                     
000175fb  ti_sysbios_BIOS_RtsGateProxy_Handle__label__S                        
00016ecd  ti_sysbios_BIOS_RtsGateProxy_Object__delete__S                       
00014a55  ti_sysbios_BIOS_RtsGateProxy_enter__E                                
00014ead  ti_sysbios_BIOS_RtsGateProxy_leave__E                                
00018209  ti_sysbios_BIOS_RtsGateProxy_query__E                                
000161d5  ti_sysbios_BIOS_atExitFunc__I                                        
00016e3d  ti_sysbios_BIOS_errorRaiseHook__I                                    
00017a39  ti_sysbios_BIOS_exitFunc__I                                          
00017db1  ti_sysbios_BIOS_exit__E                                              
00017dc1  ti_sysbios_BIOS_getCpuFreq__E                                        
00017fd1  ti_sysbios_BIOS_getThreadType__E                                     
0000c41b  ti_sysbios_BIOS_nullFunc__I                                          
00016e61  ti_sysbios_BIOS_registerRTSLock__I                                   
00016e85  ti_sysbios_BIOS_removeRTSLock__I                                     
000170d5  ti_sysbios_BIOS_rtsLock__I                                           
000178b1  ti_sysbios_BIOS_rtsUnlock__I                                         
00017dd1  ti_sysbios_BIOS_setThreadType__E                                     
00016ea9  ti_sysbios_BIOS_startFunc__I                                         
00017de1  ti_sysbios_BIOS_start__E                                             
2002b5fc  ti_sysbios_family_arm_lm4_Seconds_Module__state__V                   
00017429  ti_sysbios_family_arm_lm4_Seconds_get__E                             
00015301  ti_sysbios_family_arm_lm4_Seconds_set__E                             
2002b168  ti_sysbios_family_arm_lm4_Timer_Module_State_0_device__A             
2002b420  ti_sysbios_family_arm_lm4_Timer_Module_State_0_handles__A            
000178c9  ti_sysbios_family_arm_lm4_Timer_Module__startupDone__F               
000178c9  ti_sysbios_family_arm_lm4_Timer_Module__startupDone__S               
2002b570  ti_sysbios_family_arm_lm4_Timer_Module__state__V                     
00012349  ti_sysbios_family_arm_lm4_Timer_Module_startup__E                    
2002ae84  ti_sysbios_family_arm_lm4_Timer_Object__table__V                     
0001add4  ti_sysbios_family_arm_lm4_Timer_enableFunc__C                        
00014499  ti_sysbios_family_arm_lm4_Timer_enableTimers__I                      
0000e719  ti_sysbios_family_arm_lm4_Timer_enableTiva__I                        
00017fe1  ti_sysbios_family_arm_lm4_Timer_getMaxTicks__E                       
00013751  ti_sysbios_family_arm_lm4_Timer_initDevice__I                        
000149c9  ti_sysbios_family_arm_lm4_Timer_isrStub__E                           
0001817d  ti_sysbios_family_arm_lm4_Timer_masterDisable__I                     
0001533d  ti_sysbios_family_arm_lm4_Timer_masterEnable__I                      
0001add8  ti_sysbios_family_arm_lm4_Timer_numTimerDevices__C                   
0000acf1  ti_sysbios_family_arm_lm4_Timer_start__E                             
0001addc  ti_sysbios_family_arm_lm4_Timer_startupNeeded__C                     
00014eb1  ti_sysbios_family_arm_lm4_Timer_startup__E                           
00016209  ti_sysbios_family_arm_lm4_Timer_stop__E                              
00016ff1  ti_sysbios_family_arm_lm4_Timer_write__I                             
2002b604  ti_sysbios_family_arm_lm4_TimestampProvider_Module__state__V         
000181c1  ti_sysbios_family_arm_lm4_TimestampProvider_Module_startup__E        
00017dc1  ti_sysbios_family_arm_lm4_TimestampProvider_getFreq__E               
00017df1  ti_sysbios_family_arm_lm4_TimestampProvider_rolloverFunc__E          
00017ff1  ti_sysbios_family_arm_lm4_TimestampProvider_startTimer__E            
0001ade0  ti_sysbios_family_arm_m3_Hwi_E_NMI__C                                
0001ade4  ti_sysbios_family_arm_m3_Hwi_E_alreadyDefined__C                     
0001ade8  ti_sysbios_family_arm_m3_Hwi_E_busFault__C                           
0001adec  ti_sysbios_family_arm_m3_Hwi_E_debugMon__C                           
0001adf0  ti_sysbios_family_arm_m3_Hwi_E_hardFault__C                          
0001adf4  ti_sysbios_family_arm_m3_Hwi_E_memFault__C                           
0001adf8  ti_sysbios_family_arm_m3_Hwi_E_noIsr__C                              
0001adfc  ti_sysbios_family_arm_m3_Hwi_E_reserved__C                           
0001ae00  ti_sysbios_family_arm_m3_Hwi_E_svCall__C                             
0001ae04  ti_sysbios_family_arm_m3_Hwi_E_usageFault__C                         
000175c7  ti_sysbios_family_arm_m3_Hwi_Handle__label__S                        
00015c79  ti_sysbios_family_arm_m3_Hwi_Instance_finalize__E                    
0000f2d9  ti_sysbios_family_arm_m3_Hwi_Instance_init__E                        
2002b27a  ti_sysbios_family_arm_m3_Hwi_Module_State_0_excActive__A             
2002b6c0  ti_sysbios_family_arm_m3_Hwi_Module_State_0_excContext__A            
2002b6c4  ti_sysbios_family_arm_m3_Hwi_Module_State_0_excStack__A              
0001a0ee  ti_sysbios_family_arm_m3_Hwi_Module__id__C                           
2002b60c  ti_sysbios_family_arm_m3_Hwi_Module__root__V                         
000178e1  ti_sysbios_family_arm_m3_Hwi_Module__startupDone__F                  
000178e1  ti_sysbios_family_arm_m3_Hwi_Module__startupDone__S                  
2002b214  ti_sysbios_family_arm_m3_Hwi_Module__state__V                        
00013b79  ti_sysbios_family_arm_m3_Hwi_Module_startup__E                       
0001ae08  ti_sysbios_family_arm_m3_Hwi_NUM_INTERRUPTS__C                       
0001aaf0  ti_sysbios_family_arm_m3_Hwi_Object__DESC__C                         
0001a954  ti_sysbios_family_arm_m3_Hwi_Object__PARAMS__C                       
0001ae0c  ti_sysbios_family_arm_m3_Hwi_Object__count__C                        
000170f5  ti_sysbios_family_arm_m3_Hwi_Object__delete__S                       
00017445  ti_sysbios_family_arm_m3_Hwi_Object__destruct__S                     
00017bbd  ti_sysbios_family_arm_m3_Hwi_Object__get__S                          
2002b2dc  ti_sysbios_family_arm_m3_Hwi_Object__table__V                        
00017ffd  ti_sysbios_family_arm_m3_Hwi_Params__init__S                         
0001ae10  ti_sysbios_family_arm_m3_Hwi_ccr__C                                  
000132a5  ti_sysbios_family_arm_m3_Hwi_construct                               
000123ad  ti_sysbios_family_arm_m3_Hwi_create                                  
0001537d  ti_sysbios_family_arm_m3_Hwi_delete                                  
000153bd  ti_sysbios_family_arm_m3_Hwi_destruct                                
00018009  ti_sysbios_family_arm_m3_Hwi_disableFxn__E                           
000144e1  ti_sysbios_family_arm_m3_Hwi_disableInterrupt__E                     
00012411  ti_sysbios_family_arm_m3_Hwi_dispatchC__I                            
200289f8  ti_sysbios_family_arm_m3_Hwi_dispatchTable                           
0000b9dd  ti_sysbios_family_arm_m3_Hwi_dispatch__I                             
00018189  ti_sysbios_family_arm_m3_Hwi_doSwiRestore__I                         
000181c9  ti_sysbios_family_arm_m3_Hwi_doTaskRestore__I                        
00014529  ti_sysbios_family_arm_m3_Hwi_enableInterrupt__E                      
00007811  ti_sysbios_family_arm_m3_Hwi_excBusFault__I                          
0000dd21  ti_sysbios_family_arm_m3_Hwi_excDebugMon__I                          
00002889  ti_sysbios_family_arm_m3_Hwi_excDumpRegs__I                          
00017115  ti_sysbios_family_arm_m3_Hwi_excHandlerAsm__I                        
0001ae14  ti_sysbios_family_arm_m3_Hwi_excHandlerFunc__C                       
00006119  ti_sysbios_family_arm_m3_Hwi_excHandlerMax__I                        
00017139  ti_sysbios_family_arm_m3_Hwi_excHandler__I                           
0000dde1  ti_sysbios_family_arm_m3_Hwi_excHardFault__I                         
0001ad98  ti_sysbios_family_arm_m3_Hwi_excHookFuncs__A                         
0001ae18  ti_sysbios_family_arm_m3_Hwi_excHookFuncs__C                         
000085e1  ti_sysbios_family_arm_m3_Hwi_excMemFault__I                          
00015cb1  ti_sysbios_family_arm_m3_Hwi_excNmi__I                               
00015711  ti_sysbios_family_arm_m3_Hwi_excNoIsr__I                             
00014571  ti_sysbios_family_arm_m3_Hwi_excReserved__I                          
00015341  ti_sysbios_family_arm_m3_Hwi_excSvCall__I                            
00007dd1  ti_sysbios_family_arm_m3_Hwi_excUsageFault__I                        
00014a11  ti_sysbios_family_arm_m3_Hwi_getStackInfo__E                         
0000f371  ti_sysbios_family_arm_m3_Hwi_initNVIC__E                             
000132fd  ti_sysbios_family_arm_m3_Hwi_initStacks__E                           
0001ae1c  ti_sysbios_family_arm_m3_Hwi_nullIsrFunc__C                          
e000e000  ti_sysbios_family_arm_m3_Hwi_nvic                                    
00016bb1  ti_sysbios_family_arm_m3_Hwi_pendSV__I                               
00010211  ti_sysbios_family_arm_m3_Hwi_postInit__I                             
0001ae20  ti_sysbios_family_arm_m3_Hwi_priGroup__C                             
20000000  ti_sysbios_family_arm_m3_Hwi_ramVectors                              
00000000  ti_sysbios_family_arm_m3_Hwi_resetVectors                            
000181d1  ti_sysbios_family_arm_m3_Hwi_restoreFxn__E                           
00016bd5  ti_sysbios_family_arm_m3_Hwi_return                                  
00018191  ti_sysbios_family_arm_m3_Hwi_startup__E                              
00017bd1  ti_sysbios_family_arm_m3_Hwi_switchFromBootStack__E                  
00015cad  ti_sysbios_family_arm_m3_TaskSupport_Module__startupDone__S          
0000fa25  ti_sysbios_family_arm_m3_TaskSupport_buildTaskStack                  
00018019  ti_sysbios_family_arm_m3_TaskSupport_checkStack__E                   
00018029  ti_sysbios_family_arm_m3_TaskSupport_getStackAlignment__E            
00017e01  ti_sysbios_family_arm_m3_TaskSupport_glue                            
0001ae24  ti_sysbios_family_arm_m3_TaskSupport_stackAlignment__C               
00016239  ti_sysbios_family_arm_m3_TaskSupport_start__E                        
000178f9  ti_sysbios_family_arm_m3_TaskSupport_swap__E                         
000172f1  ti_sysbios_family_xxx_Hwi_switchAndRunFunc                           
000175e1  ti_sysbios_gates_GateHwi_Handle__label__S                            
00018219  ti_sysbios_gates_GateHwi_Instance_init__E                            
0001a9f8  ti_sysbios_gates_GateHwi_Module__FXNS__C                             
2002b614  ti_sysbios_gates_GateHwi_Module__root__V                             
0001ab10  ti_sysbios_gates_GateHwi_Object__DESC__C                             
0001acac  ti_sysbios_gates_GateHwi_Object__PARAMS__C                           
00016269  ti_sysbios_gates_GateHwi_Object__create__S                           
00017159  ti_sysbios_gates_GateHwi_Object__delete__S                           
2002b6c8  ti_sysbios_gates_GateHwi_Object__table__V                            
00018039  ti_sysbios_gates_GateHwi_enter__E                                    
000181d9  ti_sysbios_gates_GateHwi_leave__E                                    
00018201  ti_sysbios_gates_GateHwi_query__E                                    
000175fb  ti_sysbios_gates_GateMutex_Handle__label__S                          
0001ae28  ti_sysbios_gates_GateMutex_Instance_State_sem__O                     
00017e11  ti_sysbios_gates_GateMutex_Instance_finalize__E                      
00017461  ti_sysbios_gates_GateMutex_Instance_init__E                          
0001aa1c  ti_sysbios_gates_GateMutex_Module__FXNS__C                           
2002b61c  ti_sysbios_gates_GateMutex_Module__root__V                           
0001ab30  ti_sysbios_gates_GateMutex_Object__DESC__C                           
0001acc4  ti_sysbios_gates_GateMutex_Object__PARAMS__C                         
00016299  ti_sysbios_gates_GateMutex_Object__create__S                         
00016ecd  ti_sysbios_gates_GateMutex_Object__delete__S                         
2002b1a8  ti_sysbios_gates_GateMutex_Object__table__V                          
000162c9  ti_sysbios_gates_GateMutex_enter__E                                  
00017911  ti_sysbios_gates_GateMutex_leave__E                                  
00018209  ti_sysbios_gates_GateMutex_query__E                                  
0001ae2c  ti_sysbios_hal_Hwi_E_stackOverflow__C                                
000175c7  ti_sysbios_hal_Hwi_HwiProxy_Handle__label__S                         
000178e1  ti_sysbios_hal_Hwi_HwiProxy_Module__startupDone__S                   
000170f5  ti_sysbios_hal_Hwi_HwiProxy_Object__delete__S                        
00017ffd  ti_sysbios_hal_Hwi_HwiProxy_Params__init__S                          
000144e1  ti_sysbios_hal_Hwi_HwiProxy_disableInterrupt__E                      
00018009  ti_sysbios_hal_Hwi_HwiProxy_disable__E                               
00014529  ti_sysbios_hal_Hwi_HwiProxy_enableInterrupt__E                       
00014a11  ti_sysbios_hal_Hwi_HwiProxy_getStackInfo__E                          
000181d1  ti_sysbios_hal_Hwi_HwiProxy_restore__E                               
00018191  ti_sysbios_hal_Hwi_HwiProxy_startup__E                               
00017bd1  ti_sysbios_hal_Hwi_HwiProxy_switchFromBootStack__E                   
0001a3f6  ti_sysbios_hal_Hwi_Module__id__C                                     
00017ce1  ti_sysbios_hal_Hwi_Module_startup__E                                 
00015ce9  ti_sysbios_hal_Hwi_checkStack                                        
000144e1  ti_sysbios_hal_Hwi_disableInterrupt__E                               
00014529  ti_sysbios_hal_Hwi_enableInterrupt__E                                
00014a11  ti_sysbios_hal_Hwi_getStackInfo__E                                   
00015f81  ti_sysbios_hal_Hwi_initStack                                         
00018191  ti_sysbios_hal_Hwi_startup__E                                        
00017bd1  ti_sysbios_hal_Hwi_switchFromBootStack__E                            
00017429  ti_sysbios_hal_Seconds_SecondsProxy_get__E                           
00015301  ti_sysbios_hal_Seconds_SecondsProxy_set__E                           
00017429  ti_sysbios_hal_Seconds_get__E                                        
00015301  ti_sysbios_hal_Seconds_set__E                                        
0001ae30  ti_sysbios_heaps_HeapMem_E_memory__C                                 
00017615  ti_sysbios_heaps_HeapMem_Handle__label__S                            
20000380  ti_sysbios_heaps_HeapMem_Instance_State_0_buf__A                     
00014ef1  ti_sysbios_heaps_HeapMem_Instance_init__E                            
000175fb  ti_sysbios_heaps_HeapMem_Module_GateProxy_Handle__label__S           
00016ecd  ti_sysbios_heaps_HeapMem_Module_GateProxy_Object__delete__S          
00015ce5  ti_sysbios_heaps_HeapMem_Module_GateProxy_enter__E                   
00016205  ti_sysbios_heaps_HeapMem_Module_GateProxy_leave__E                   
00018209  ti_sysbios_heaps_HeapMem_Module_GateProxy_query__E                   
0001a984  ti_sysbios_heaps_HeapMem_Module__FXNS__C                             
0001ae34  ti_sysbios_heaps_HeapMem_Module__gateObj__C                          
0001a8b2  ti_sysbios_heaps_HeapMem_Module__id__C                               
2002b624  ti_sysbios_heaps_HeapMem_Module__root__V                             
0001ab50  ti_sysbios_heaps_HeapMem_Object__DESC__C                             
0001aa40  ti_sysbios_heaps_HeapMem_Object__PARAMS__C                           
0001ae38  ti_sysbios_heaps_HeapMem_Object__count__C                            
000162f9  ti_sysbios_heaps_HeapMem_Object__create__S                           
00017179  ti_sysbios_heaps_HeapMem_Object__delete__S                           
00017be5  ti_sysbios_heaps_HeapMem_Object__get__S                              
2002b4dc  ti_sysbios_heaps_HeapMem_Object__table__V                            
0000cd89  ti_sysbios_heaps_HeapMem_alloc__E                                    
00010b79  ti_sysbios_heaps_HeapMem_free__E                                     
00013f21  ti_sysbios_heaps_HeapMem_getStats__E                                 
00015381  ti_sysbios_heaps_HeapMem_init__I                                     
000181e1  ti_sysbios_heaps_HeapMem_isBlocking__E                               
0001ae3c  ti_sysbios_heaps_HeapMem_reqAlign__C                                 
00013bc9  ti_sysbios_knl_Clock_Instance_init__E                                
0001ae40  ti_sysbios_knl_Clock_Module_State_clockQ__O                          
2002b62c  ti_sysbios_knl_Clock_Module__root__V                                 
2002b33c  ti_sysbios_knl_Clock_Module__state__V                                
00016ef1  ti_sysbios_knl_Clock_Module_startup__E                               
0001ab70  ti_sysbios_knl_Clock_Object__DESC__C                                 
0001aa64  ti_sysbios_knl_Clock_Object__PARAMS__C                               
00018045  ti_sysbios_knl_Clock_Params__init__S                                 
000178c9  ti_sysbios_knl_Clock_TimerProxy_Module__startupDone__S               
0001678d  ti_sysbios_knl_Clock_TimerProxy_getMaxTicks__E                       
00014eb1  ti_sysbios_knl_Clock_TimerProxy_startup__E                           
00016ac9  ti_sysbios_knl_Clock_addI__E                                         
00015749  ti_sysbios_knl_Clock_create                                          
00016735  ti_sysbios_knl_Clock_doTick__I                                       
00018051  ti_sysbios_knl_Clock_getTicks__E                                     
00018221  ti_sysbios_knl_Clock_logTick__E                                      
00011589  ti_sysbios_knl_Clock_workFunc__E                                     
0001ae44  ti_sysbios_knl_Event_Instance_State_pendQ__O                         
00017bf9  ti_sysbios_knl_Event_Instance_init__E                                
2002b634  ti_sysbios_knl_Event_Module__root__V                                 
0001ab90  ti_sysbios_knl_Event_Object__DESC__C                                 
0001acdc  ti_sysbios_knl_Event_Object__PARAMS__C                               
00017199  ti_sysbios_knl_Event_Object__delete__S                               
00016329  ti_sysbios_knl_Event_create                                          
00016f15  ti_sysbios_knl_Event_delete                                          
00015fb9  ti_sysbios_knl_Event_pendTimeout__I                                  
00008341  ti_sysbios_knl_Event_pend__E                                         
0000fab1  ti_sysbios_knl_Event_post__E                                         
0001ada0  ti_sysbios_knl_Idle_funcList__A                                      
0001ada8  ti_sysbios_knl_Idle_funcList__C                                      
00017ef9  ti_sysbios_knl_Idle_loop__E                                          
000171b9  ti_sysbios_knl_Idle_run__E                                           
000181e9  ti_sysbios_knl_Queue_Instance_init__E                                
2002b63c  ti_sysbios_knl_Queue_Module__root__V                                 
0001abb0  ti_sysbios_knl_Queue_Object__DESC__C                                 
0001acf4  ti_sysbios_knl_Queue_Object__PARAMS__C                               
0001747d  ti_sysbios_knl_Queue_Object__destruct__S                             
0001805d  ti_sysbios_knl_Queue_Object__get__S                                  
00016761  ti_sysbios_knl_Queue_construct                                       
00016fed  ti_sysbios_knl_Queue_destruct                                        
00017f09  ti_sysbios_knl_Queue_empty__E                                        
00017499  ti_sysbios_knl_Queue_put__E                                          
0001ae48  ti_sysbios_knl_Semaphore_Instance_State_pendQ__O                     
00017e21  ti_sysbios_knl_Semaphore_Instance_finalize__E                        
00016f19  ti_sysbios_knl_Semaphore_Instance_init__E                            
2002b644  ti_sysbios_knl_Semaphore_Module__root__V                             
0001abd0  ti_sysbios_knl_Semaphore_Object__DESC__C                             
0001aa88  ti_sysbios_knl_Semaphore_Object__PARAMS__C                           
00016f3d  ti_sysbios_knl_Semaphore_Object__delete__S                           
000171d9  ti_sysbios_knl_Semaphore_Object__destruct__S                         
2002b004  ti_sysbios_knl_Semaphore_Object__table__V                            
00018069  ti_sysbios_knl_Semaphore_Params__init__S                             
00016359  ti_sysbios_knl_Semaphore_construct                                   
00015d1d  ti_sysbios_knl_Semaphore_create                                      
00017135  ti_sysbios_knl_Semaphore_delete                                      
000174b5  ti_sysbios_knl_Semaphore_destruct                                    
00015ff1  ti_sysbios_knl_Semaphore_pendTimeout__I                              
00008ea1  ti_sysbios_knl_Semaphore_pend__E                                     
00012479  ti_sysbios_knl_Semaphore_post__E                                     
00017cf9  ti_sysbios_knl_Semaphore_reset__E                                    
0001762f  ti_sysbios_knl_Swi_Handle__label__S                                  
00018229  ti_sysbios_knl_Swi_Instance_finalize__E                              
000137a9  ti_sysbios_knl_Swi_Instance_init__E                                  
2002af04  ti_sysbios_knl_Swi_Module_State_0_readyQ__A                          
2002b64c  ti_sysbios_knl_Swi_Module__root__V                                   
2002b478  ti_sysbios_knl_Swi_Module__state__V                                  
00016af1  ti_sysbios_knl_Swi_Module_startup__E                                 
0001abf0  ti_sysbios_knl_Swi_Object__DESC__C                                   
0001a9ac  ti_sysbios_knl_Swi_Object__PARAMS__C                                 
0001ae4c  ti_sysbios_knl_Swi_Object__count__C                                  
000171f9  ti_sysbios_knl_Swi_Object__delete__S                                 
00017c0d  ti_sysbios_knl_Swi_Object__get__S                                    
2002b30c  ti_sysbios_knl_Swi_Object__table__V                                  
00012bf5  ti_sysbios_knl_Swi_create                                            
00017fcd  ti_sysbios_knl_Swi_delete                                            
00017e31  ti_sysbios_knl_Swi_disable__E                                        
00014a59  ti_sysbios_knl_Swi_post__E                                           
00011c69  ti_sysbios_knl_Swi_restoreHwi__E                                     
000153c1  ti_sysbios_knl_Swi_restore__E                                        
00013f71  ti_sysbios_knl_Swi_runLoop__I                                        
00012c51  ti_sysbios_knl_Swi_run__I                                            
00012cb1  ti_sysbios_knl_Swi_schedule__I                                       
000181f1  ti_sysbios_knl_Swi_startup__E                                        
0001ae50  ti_sysbios_knl_Task_E_deleteNotAllowed__C                            
0001ae54  ti_sysbios_knl_Task_E_spOutOfBounds__C                               
0001ae58  ti_sysbios_knl_Task_E_stackOverflow__C                               
00017649  ti_sysbios_knl_Task_Handle__label__S                                 
20029b24  ti_sysbios_knl_Task_Instance_State_0_hookEnv__A                      
2001dc98  ti_sysbios_knl_Task_Instance_State_0_stack__A                        
20029b28  ti_sysbios_knl_Task_Instance_State_1_hookEnv__A                      
2001fc98  ti_sysbios_knl_Task_Instance_State_1_stack__A                        
20029b2c  ti_sysbios_knl_Task_Instance_State_2_hookEnv__A                      
20021c98  ti_sysbios_knl_Task_Instance_State_2_stack__A                        
20029b30  ti_sysbios_knl_Task_Instance_State_3_hookEnv__A                      
20023c98  ti_sysbios_knl_Task_Instance_State_3_stack__A                        
20029b34  ti_sysbios_knl_Task_Instance_State_4_hookEnv__A                      
20024298  ti_sysbios_knl_Task_Instance_State_4_stack__A                        
00008491  ti_sysbios_knl_Task_Instance_finalize__E                             
0000bad1  ti_sysbios_knl_Task_Instance_init__E                                 
2002b6cc  ti_sysbios_knl_Task_Module_State_0_idleTask__A                       
2002af84  ti_sysbios_knl_Task_Module_State_0_readyQ__A                         
0001ae5c  ti_sysbios_knl_Task_Module_State_inactiveQ__O                        
0001ae60  ti_sysbios_knl_Task_Module_State_terminatedQ__O                      
0001ad5e  ti_sysbios_knl_Task_Module__id__C                                    
2002b654  ti_sysbios_knl_Task_Module__root__V                                  
2002b0a4  ti_sysbios_knl_Task_Module__state__V                                 
0000f649  ti_sysbios_knl_Task_Module_startup__E                                
0001ac10  ti_sysbios_knl_Task_Object__DESC__C                                  
0001a8b4  ti_sysbios_knl_Task_Object__PARAMS__C                                
0001ae64  ti_sysbios_knl_Task_Object__count__C                                 
00017219  ti_sysbios_knl_Task_Object__delete__S                                
00017c21  ti_sysbios_knl_Task_Object__first__S                                 
00017e41  ti_sysbios_knl_Task_Object__get__S                                   
0001ae68  ti_sysbios_knl_Task_Object__heap__C                                  
00017c35  ti_sysbios_knl_Task_Object__next__S                                  
2002ab38  ti_sysbios_knl_Task_Object__table__V                                 
00018075  ti_sysbios_knl_Task_Params__init__S                                  
00015cad  ti_sysbios_knl_Task_SupportProxy_Module__startupDone__S              
00018019  ti_sysbios_knl_Task_SupportProxy_checkStack__E                       
00018029  ti_sysbios_knl_Task_SupportProxy_getStackAlignment__E                
00016239  ti_sysbios_knl_Task_SupportProxy_start__E                            
000178f9  ti_sysbios_knl_Task_SupportProxy_swap__E                             
0001ae6c  ti_sysbios_knl_Task_allBlockedFunc__C                                
00013fc1  ti_sysbios_knl_Task_allBlockedFunction__I                            
0000e2f1  ti_sysbios_knl_Task_checkStacks__E                                   
00012d0d  ti_sysbios_knl_Task_create                                           
0001ae70  ti_sysbios_knl_Task_defaultStackHeap__C                              
0001ae74  ti_sysbios_knl_Task_defaultStackSize__C                              
00017fdd  ti_sysbios_knl_Task_delete                                           
000145b9  ti_sysbios_knl_Task_deleteTerminatedTasksFunc__I                     
00017e51  ti_sysbios_knl_Task_disable__E                                       
000174b9  ti_sysbios_knl_Task_enter__I                                         
0000dea1  ti_sysbios_knl_Task_exit__E                                          
00018199  ti_sysbios_knl_Task_getHookContext__E                                
00018081  ti_sysbios_knl_Task_getIdleTask__E                                   
0001ad0c  ti_sysbios_knl_Task_hooks__A                                         
0001adb0  ti_sysbios_knl_Task_hooks__C                                         
0001ae78  ti_sysbios_knl_Task_numConstructedTasks__C                           
0000c161  ti_sysbios_knl_Task_postInit__I                                      
00015781  ti_sysbios_knl_Task_processVitalTaskFlag__I                          
00016f61  ti_sysbios_knl_Task_restoreHwi__E                                    
00016791  ti_sysbios_knl_Task_restore__E                                       
0000f111  ti_sysbios_knl_Task_schedule__I                                      
00018091  ti_sysbios_knl_Task_self__E                                          
000181a1  ti_sysbios_knl_Task_setHookContext__E                                
0000e919  ti_sysbios_knl_Task_setPri__E                                        
00017669  ti_sysbios_knl_Task_sleepTimeout__I                                  
0000d591  ti_sysbios_knl_Task_sleep__E                                         
0000f6d9  ti_sysbios_knl_Task_startCore__E                                     
00018211  ti_sysbios_knl_Task_startup__E                                       
00017905  ti_sysbios_knl_Task_swapReturn                                       
00012d69  ti_sysbios_knl_Task_unblockI__E                                      
00017929  time                                                                 
00017c49  timeUpdateHook                                                       
20029aa4  tpseudo                                                              
2002998c  udps                                                                 
20029ab0  upseudo                                                              
20029940  vlan_mcb                                                             
00017d0b  wcslen                                                               
0001ae7c  xdc_runtime_Assert_E_assertFailed__C                                 
000137fd  xdc_runtime_Assert_raise__I                                          
0001ae80  xdc_runtime_Core_A_initializedParams__C                              
0001ae84  xdc_runtime_Core_Module__diagsEnabled__C                             
0001ae88  xdc_runtime_Core_Module__diagsIncluded__C                            
0001ae8c  xdc_runtime_Core_Module__diagsMask__C                                
0001af20  xdc_runtime_Core_Module__id__C                                       
00015d51  xdc_runtime_Core_assignLabel__I                                      
00014719  xdc_runtime_Core_assignParams__I                                     
0000d335  xdc_runtime_Core_constructObject__I                                  
0000b309  xdc_runtime_Core_createObject__I                                     
00012089  xdc_runtime_Core_deleteObject__I                                     
0001ae90  xdc_runtime_Error_E_memory__C                                        
0001ae94  xdc_runtime_Error_Module__diagsEnabled__C                            
0001ae98  xdc_runtime_Error_Module__diagsIncluded__C                           
0001ae9c  xdc_runtime_Error_Module__diagsMask__C                               
0001af22  xdc_runtime_Error_Module__loggerDefined__C                           
0001aea0  xdc_runtime_Error_Module__loggerFxn8__C                              
0001aea4  xdc_runtime_Error_Module__loggerObj__C                               
2002b68e  xdc_runtime_Error_Module__state__V                                   
00017941  xdc_runtime_Error_check__E                                           
00017fed  xdc_runtime_Error_getMsg__E                                          
00018015  xdc_runtime_Error_getSite__E                                         
0001809d  xdc_runtime_Error_init__E                                            
0001af24  xdc_runtime_Error_maxDepth__C                                        
0000a145  xdc_runtime_Error_policyDefault__E                                   
0001aea8  xdc_runtime_Error_policyFxn__C                                       
0001af36  xdc_runtime_Error_policy__C                                          
00011cd5  xdc_runtime_Error_print__E                                           
0001aeac  xdc_runtime_Error_raiseHook__C                                       
000174d5  xdc_runtime_Error_raiseX__E                                          
00014a9d  xdc_runtime_Error_setX__E                                            
000180a9  xdc_runtime_Gate_enterSystem__E                                      
00017e61  xdc_runtime_Gate_leaveSystem__E                                      
0001aeb0  xdc_runtime_IGateProvider_Interface__BASE__C                         
0001aeb4  xdc_runtime_IHeap_Interface__BASE__C                                 
0001aeb8  xdc_runtime_IModule_Interface__BASE__C                               
0001aebc  xdc_runtime_Log_L_error__C                                           
000175e1  xdc_runtime_Main_Module_GateProxy_Handle__label__S                   
00017159  xdc_runtime_Main_Module_GateProxy_Object__delete__S                  
00018201  xdc_runtime_Main_Module_GateProxy_query__E                           
0001aec0  xdc_runtime_Main_Module__diagsEnabled__C                             
0001aec4  xdc_runtime_Main_Module__diagsIncluded__C                            
0001aec8  xdc_runtime_Main_Module__diagsMask__C                                
0001af26  xdc_runtime_Main_Module__id__C                                       
0001af28  xdc_runtime_Main_Module__loggerDefined__C                            
0001aecc  xdc_runtime_Main_Module__loggerFxn4__C                               
0001aed0  xdc_runtime_Main_Module__loggerObj__C                                
00017615  xdc_runtime_Memory_HeapProxy_Handle__label__S                        
00017179  xdc_runtime_Memory_HeapProxy_Object__delete__S                       
00018127  xdc_runtime_Memory_HeapProxy_alloc__E                                
00018131  xdc_runtime_Memory_HeapProxy_free__E                                 
0001af2a  xdc_runtime_Memory_Module__id__C                                     
2002b6d0  xdc_runtime_Memory_Module__state__V                                  
00011d41  xdc_runtime_Memory_alloc__E                                          
000180b5  xdc_runtime_Memory_calloc__E                                         
0001aed4  xdc_runtime_Memory_defaultHeapInstance__C                            
00017e71  xdc_runtime_Memory_free__E                                           
000180c1  xdc_runtime_Memory_getMaxDefaultTypeAlign__E                         
000174f1  xdc_runtime_Memory_valloc__E                                         
2002b65c  xdc_runtime_Registry_Module__state__V                                
00017239  xdc_runtime_Registry_findById__E                                     
2002b664  xdc_runtime_Startup_Module__state__V                                 
00000001  xdc_runtime_Startup__EXECFXN__C                                      
00000001  xdc_runtime_Startup__RESETFXN__C                                     
0001aed8  xdc_runtime_Startup_execImpl__C                                      
00013c19  xdc_runtime_Startup_exec__E                                          
00017d1d  xdc_runtime_Startup_exec__I                                          
0001ad38  xdc_runtime_Startup_firstFxns__A                                     
0001adb8  xdc_runtime_Startup_firstFxns__C                                     
0001aedc  xdc_runtime_Startup_lastFxns__A                                      
0001adc0  xdc_runtime_Startup_lastFxns__C                                      
0001aee0  xdc_runtime_Startup_maxPasses__C                                     
0000c503  xdc_runtime_Startup_reset__I                                         
0001ad4c  xdc_runtime_Startup_sfxnRts__A                                       
0001aee4  xdc_runtime_Startup_sfxnRts__C                                       
0001aaac  xdc_runtime_Startup_sfxnTab__A                                       
0001aee8  xdc_runtime_Startup_sfxnTab__C                                       
0000b6f9  xdc_runtime_Startup_startMods__I                                     
20029694  xdc_runtime_SysMin_Module_State_0_outbuf__A                          
2002b57c  xdc_runtime_SysMin_Module__state__V                                  
00017259  xdc_runtime_SysMin_Module_startup__E                                 
00016389  xdc_runtime_SysMin_abort__E                                          
0001aeec  xdc_runtime_SysMin_bufSize__C                                        
0001750d  xdc_runtime_SysMin_exit__E                                           
0001af2c  xdc_runtime_SysMin_flushAtExit__C                                    
00014ae1  xdc_runtime_SysMin_flush__E                                          
0001aef0  xdc_runtime_SysMin_outputFunc__C                                     
00017013  xdc_runtime_SysMin_output__I                                         
000157b9  xdc_runtime_SysMin_putch__E                                          
00017e81  xdc_runtime_SysMin_ready__E                                          
000175e1  xdc_runtime_System_Module_GateProxy_Handle__label__S                 
00017159  xdc_runtime_System_Module_GateProxy_Object__delete__S                
00018025  xdc_runtime_System_Module_GateProxy_enter__E                         
00018035  xdc_runtime_System_Module_GateProxy_leave__E                         
00018201  xdc_runtime_System_Module_GateProxy_query__E                         
2002b66c  xdc_runtime_System_Module_State_0_atexitHandlers__A                  
0001aef4  xdc_runtime_System_Module__gateObj__C                                
2002b674  xdc_runtime_System_Module__state__V                                  
000181f7  xdc_runtime_System_Module_startup__E                                 
00016389  xdc_runtime_System_SupportProxy_abort__E                             
0001750d  xdc_runtime_System_SupportProxy_exit__E                              
00014ae1  xdc_runtime_System_SupportProxy_flush__E                             
000157b9  xdc_runtime_System_SupportProxy_putch__E                             
00017e81  xdc_runtime_System_SupportProxy_ready__E                             
0001aef8  xdc_runtime_System_abortFxn__C                                       
00013f6d  xdc_runtime_System_abortStd__E                                       
00017529  xdc_runtime_System_abort__E                                          
00017683  xdc_runtime_System_aprintf__E                                        
0001808d  xdc_runtime_System_aprintf_va__F                                     
000157f1  xdc_runtime_System_atexit__E                                         
00016bd7  xdc_runtime_System_avprintf__E                                       
00003b41  xdc_runtime_System_doPrint__I                                        
0001aefc  xdc_runtime_System_exitFxn__C                                        
00013f6d  xdc_runtime_System_exitStd__E                                        
00017959  xdc_runtime_System_exit__E                                           
0001af00  xdc_runtime_System_extendFxn__C                                      
00014ae1  xdc_runtime_System_flush__E                                          
00011901  xdc_runtime_System_formatNum__I                                      
0001af04  xdc_runtime_System_maxAtexitHandlers__C                              
0000b7f1  xdc_runtime_System_printfExtend__I                                   
0001769d  xdc_runtime_System_printf__E                                         
00018185  xdc_runtime_System_printf_va__F                                      
000163b9  xdc_runtime_System_processAtExit__E                                  
000168e5  xdc_runtime_System_putchar__I                                        
00016f85  xdc_runtime_System_vprintf__E                                        
00017e91  xdc_runtime_System_vsnprintf__E                                      
00017a7b  xdc_runtime_System_vsprintf__E                                       
0001af2e  xdc_runtime_Text_charCnt__C                                          
00018230  xdc_runtime_Text_charTab__A                                          
0001af08  xdc_runtime_Text_charTab__C                                          
000167bd  xdc_runtime_Text_cordText__E                                         
0001af30  xdc_runtime_Text_isLoaded__C                                         
0001af0c  xdc_runtime_Text_nameEmpty__C                                        
0001af10  xdc_runtime_Text_nameStatic__C                                       
0001af14  xdc_runtime_Text_nameUnknown__C                                      
0001a312  xdc_runtime_Text_nodeTab__A                                          
0001af18  xdc_runtime_Text_nodeTab__C                                          
00015d85  xdc_runtime_Text_printVisFxn__I                                      
00012dc5  xdc_runtime_Text_putLab__E                                           
0000eafd  xdc_runtime_Text_putMod__E                                           
0000eead  xdc_runtime_Text_putSite__E                                          
0001af32  xdc_runtime_Text_registryModsLastId__C                               
00017971  xdc_runtime_Text_ropeText__E                                         
0001af34  xdc_runtime_Text_unnamedModsLastId__C                                
00013c69  xdc_runtime_Text_visitRope2__I                                       
0001af1c  xdc_runtime_Text_visitRopeFxn__C                                     
00017ea1  xdc_runtime_Text_visitRope__I                                        
00014b25  xdc_runtime_Text_xprintf__I                                          
00017dc1  xdc_runtime_Timestamp_SupportProxy_getFreq__E                        
00017dc1  xdc_runtime_Timestamp_getFreq__E                                     


GLOBAL SYMBOLS: SORTED BY Symbol Address 

address   name                                                                 
-------   ----                                                                 
00000000  __ASM__                                                              
00000000  ti_sysbios_family_arm_m3_Hwi_resetVectors                            
00000001  xdc_runtime_Startup__EXECFXN__C                                      
00000001  xdc_runtime_Startup__RESETFXN__C                                     
00000041  TcpInput                                                             
00000072  __ISA__                                                              
00000085  __PLAT__                                                             
000000a6  __TARG__                                                             
000000cc  __TRDR__                                                             
00000ca9  __TI_printfi                                                         
00001000  __STACK_SIZE                                                         
000016f7  LED_TOGGLE                                                           
000016f9  TcpOutput                                                            
00002429  strtod                                                               
00002429  strtold                                                              
00002889  ti_sysbios_family_arm_m3_Hwi_excDumpRegs__I                          
00002cb9  IPTxPacket                                                           
000030c1  SNTP_start                                                           
00003449  IPRxPacket                                                           
00003b3f  NatMsg                                                               
00003b41  xdc_runtime_System_doPrint__I                                        
00003e8d  httpTask                                                             
00004493  _TaskInit                                                            
00004495  getaddrinfo                                                          
00004a67  _TaskShutdown                                                        
00004a69  __mktime32                                                           
00004a69  mktime                                                               
00004d09  SockSet                                                              
000051fd  fdPoll                                                               
0000545b  _llSerialServiceCheck                                                
0000545d  IPReasm                                                              
000056a9  ICMPInput                                                            
000058e5  UdpInput                                                             
00005b1d  ti_catalog_arm_cortexm4_tiva_ce_Boot_sysCtlClockFreqSetI__I          
00005d21  paj7620Init                                                          
00005f21  SockRecv                                                             
00006115  BindGetIF                                                            
00006119  ti_sysbios_family_arm_m3_Hwi_excHandlerMax__I                        
000064dd  EMACSnow_NIMUInit                                                    
00006695  __aeabi_dsub                                                         
0000669f  __aeabi_dadd                                                         
0000684b  _llSerialShutdown                                                    
0000684d  LLITxIpPacket                                                        
000069fd  LLIRxPacket                                                          
00006ba9  mmAlloc                                                              
00006edf  _llUserLedInit                                                       
00006ee1  IGMPInput                                                            
00007079  NtGetPublicHost                                                      
00007211  SockNew                                                              
000073a1  fdSelect                                                             
00007527  _llUserLedShutdown                                                   
00007529  NC_NetStart                                                          
0000769d  startNTP                                                             
00007811  ti_sysbios_family_arm_m3_Hwi_excBusFault__I                          
00007985  RTCReport                                                            
00007c61  SBRead                                                               
00007dcb  EMACRxDMADescriptorListSet                                           
00007dd1  ti_sysbios_family_arm_m3_Hwi_excUsageFault__I                        
00007f35  SockConnect                                                          
00008095  DHCPOpen                                                             
000081ed  GPIO_setConfig                                                       
0000833d  BindGetNext                                                          
00008341  ti_sysbios_knl_Event_pend__E                                         
00008491  ti_sysbios_knl_Task_Instance_finalize__E                             
000085e1  ti_sysbios_family_arm_m3_Hwi_excMemFault__I                          
00008729  BindNew                                                              
0000886d  TcpTimeoutCheck                                                      
000089ad  CfgAddEntry                                                          
00008ae9  SockNotify                                                           
00008c25  SockSend                                                             
00008e9d  HTTPCli_construct                                                    
00008ea1  ti_sysbios_knl_Semaphore_pend__E                                     
00008fd9  DNSGetReply                                                          
0000910f  __aeabi_ddiv                                                         
00009245  ICMPGenPacket                                                        
00009379  __localtime32                                                        
00009379  localtime                                                            
000095df  GPIOPadConfigSet                                                     
0000970f  _nop                                                                 
00009711  EK_TM4C1294XL_initEMAC                                               
00009965  SockPcbResolve                                                       
00009a89  UdpOutput                                                            
00009cd1  sendData2Server                                                      
00009df5  ti_ndk_config_Global_stackThread                                     
00009f15  HTTPCli_connect                                                      
0000a02d  TcpGenPacket                                                         
0000a145  xdc_runtime_Error_policyDefault__E                                   
0000a25d  NIMUIoctl                                                            
0000a371  paj7620Task                                                          
0000a485  NodeTreeFree                                                         
0000a595  RawInput                                                             
0000a6a5  ldexp                                                                
0000a6a5  ldexpl                                                               
0000a6a5  scalbn                                                               
0000a6a5  scalbnl                                                              
0000a7b5  strtoul                                                              
0000a8c5  RtFind                                                               
0000a9d1  socketTask                                                           
0000aadd  RtCreate                                                             
0000abe7  llSerialService                                                      
0000abe9  EMACSnow_emacStart                                                   
0000acf1  ti_sysbios_family_arm_lm4_Timer_start__E                             
0000adf9  HTTPCli_getResponseField                                             
0000aeff  __aeabi_idiv0                                                        
0000aeff  __aeabi_ldiv0                                                        
0000af01  llEnter                                                              
0000b005  dhcpPacketProcess                                                    
0000b107  inet_aton                                                            
0000b309  xdc_runtime_Core_createObject__I                                     
0000b505  __aeabi_dmul                                                         
0000b601  PipeRecv                                                             
0000b6f9  xdc_runtime_Startup_startMods__I                                     
0000b7f1  xdc_runtime_System_printfExtend__I                                   
0000b8e9  TaskGetEnv                                                           
0000b9dd  ti_sysbios_family_arm_m3_Hwi_dispatch__I                             
0000bad1  ti_sysbios_knl_Task_Instance_init__E                                 
0000bcb9  LLIGenArpPacket                                                      
0000bda9  SockClose                                                            
0000bf89  getTempTask                                                          
0000c161  ti_sysbios_knl_Task_postInit__I                                      
0000c24d  TaskSetEnv                                                           
0000c41b  ti_sysbios_BIOS_nullFunc__I                                          
0000c41d  HTTPCli_initSockAddr                                                 
0000c503  xdc_runtime_Startup_reset__I                                         
0000c505  I2CTiva_open                                                         
0000c5e5  TcpTimeoutRexmt                                                      
0000c6c5  SBWrite                                                              
0000c7a1  dhcpSocketOpen                                                       
0000c87d  dhcpState                                                            
0000c959  NodeAdd                                                              
0000ca31  TcpPrSetOption                                                       
0000ccb5  SockPcbBind                                                          
0000cd89  ti_sysbios_heaps_HeapMem_alloc__E                                    
0000ce5d  getLocalTime                                                         
0000cf31  NIMUReceivePacket                                                    
0000d005  ICMPSendRtAdv                                                        
0000d269  dhcpVerifyMessage                                                    
0000d335  xdc_runtime_Core_constructObject__I                                  
0000d401  RawEthSockNew                                                        
0000d591  TaskSleep                                                            
0000d591  ti_sysbios_knl_Task_sleep__E                                         
0000d659  EMACSnow_InitDMADescriptors                                          
0000da2d  DNSGetHostByName                                                     
0000dba9  VLANDeinit                                                           
0000dc65  netIPAddrHook                                                        
0000dd21  ti_sysbios_family_arm_m3_Hwi_excDebugMon__I                          
0000dddd  I2CMasterControl                                                     
0000dde1  ti_sysbios_family_arm_m3_Hwi_excHardFault__I                         
0000de9d  I2CMasterDataGet                                                     
0000dea1  TaskExit                                                             
0000dea1  ti_sysbios_knl_Task_exit__E                                          
0000df5d  EK_TM4C1294XL_initGeneral                                            
0000e0cd  _LLITimeoutCheck                                                     
0000e185  TcpTimeoutKeep                                                       
0000e2ed  I2CMasterDataPut                                                     
0000e2f1  ti_sysbios_knl_Task_checkStacks__E                                   
0000e50b  RawEthSockSet                                                        
0000e715  NDK_vsprintf                                                         
0000e719  ti_sysbios_family_arm_lm4_Timer_enableTiva__I                        
0000e7c5  Ssock_send                                                           
0000e871  SockCreatePacket                                                     
0000e919  ti_sysbios_knl_Task_setPri__E                                        
0000e9bd  IPGetRoute                                                           
0000ea5d  __TI_auto_init                                                       
0000eafd  xdc_runtime_Text_putMod__E                                           
0000eb9d  NIMUAddEthernetHeader                                                
0000ec3b  dhcpBuildRequest                                                     
0000ecd9  ExecOpen                                                             
0000ed75  getHumTask                                                           
0000ee11  __aeabi_memcpy                                                       
0000ee11  __aeabi_memcpy4                                                      
0000ee11  __aeabi_memcpy8                                                      
0000ee11  memcpy                                                               
0000eead  xdc_runtime_Text_putSite__E                                          
0000ef49  NC_SystemOpen                                                        
0000f079  ti_catalog_arm_cortexm4_tiva_ce_Boot_sysCtlClockFreqSet__E           
0000f111  ti_sysbios_knl_Task_schedule__I                                      
0000f1a9  __aeabi_uldivmod                                                     
0000f241  CfgRemoveEntry                                                       
0000f2d5  NodeSetRt                                                            
0000f2d9  ti_sysbios_family_arm_m3_Hwi_Instance_init__E                        
0000f36d  RawEthSockPrAttach                                                   
0000f371  ti_sysbios_family_arm_m3_Hwi_initNVIC__E                             
0000f405  CfgExecute                                                           
0000f495  IGMPMsg                                                              
0000f525  mmBulkAlloc                                                          
0000f645  RawEthSockPrDetach                                                   
0000f649  ti_sysbios_knl_Task_Module_startup__E                                
0000f6d9  ti_sysbios_knl_Task_startCore__E                                     
0000f769  DNSResolveQuery                                                      
0000f7f5  GPIO_init                                                            
0000f881  IPMsg                                                                
0000f90d  _mmInit                                                              
0000fa25  ti_sysbios_family_arm_m3_TaskSupport_buildTaskStack                  
0000fab1  ti_sysbios_knl_Event_post__E                                         
0000fc51  SockPcbCtlError                                                      
0000fd61  SockCheck                                                            
0000fe6d  __aeabi_cdcmpeq                                                      
0000fe6d  __aeabi_cdcmple                                                      
0000fef3  __aeabi_cdrcmple                                                     
0000ff79  CfgGetEntry                                                          
0000fffd  EMACSnow_processPhyInterrupt                                         
00010081  TcpPrAttach                                                          
00010105  mmBulkFree                                                           
00010189  mmFree                                                               
0001020d  SemPend                                                              
00010211  ti_sysbios_family_arm_m3_Hwi_postInit__I                             
00010319  EMACSnow_emacStop                                                    
00010419  LLINew                                                               
00010499  NS_BootTask                                                          
00010519  PBM_alloc                                                            
00010599  RawOutput                                                            
00010619  parseString                                                          
00010699  I2CTiva_transfer                                                     
00010717  fdClose                                                              
00010795  CfgGetNextEntry                                                      
00010811  EMACSnow_hwiIntFxn                                                   
00010909  IGMPJoin                                                             
00010985  NDK_setsockopt                                                       
00010a01  NIMURegister                                                         
00010a7d  PBM_free                                                             
00010af9  inet_pton                                                            
00010b75  SemPost                                                              
00010b79  ti_sysbios_heaps_HeapMem_free__E                                     
00010bf5  __aeabi_memclr                                                       
00010bf5  __aeabi_memclr4                                                      
00010bf5  __aeabi_memclr8                                                      
00010bf7  __aeabi_memset                                                       
00010bf7  __aeabi_memset4                                                      
00010bf7  __aeabi_memset8                                                      
00010bfd  memset                                                               
00010c71  EMACInit                                                             
00010ce9  NDK_sendto                                                           
00010d61  TcpXmitTimer                                                         
00010dd9  fdOpenSession                                                        
00010e51  llExit                                                               
00010ec9  paj7620WriteReg                                                      
00010f41  PipeSend                                                             
00010fb9  TcpTimeoutSackRexmt                                                  
00011031  IGMPLeaveHostGroup                                                   
000110a5  NIMUShutdown                                                         
00011119  RawEthRxPacket                                                       
0001118d  SockPcbConnect                                                       
00011275  SemCreateBinary                                                      
000112e9  HTTPCli_sendRequest                                                  
00011359  NDK_send                                                             
000114a9  SockShutdown                                                         
00011519  dhcpDecodeType                                                       
00011589  ti_sysbios_knl_Clock_workFunc__E                                     
000115f9  NDK_recv                                                             
00011669  RtWalkNext                                                           
000117b3  __aeabi_d2f                                                          
00011821  __aeabi_ldivmod                                                      
00011901  xdc_runtime_System_formatNum__I                                      
00011971  DbgPrintf                                                            
000119dd  NodeTreeNew                                                          
00011a49  RawEthTxPacket                                                       
00011ab5  UdpChecksum                                                          
00011b21  asctime                                                              
00011bf9  ti_ndk_config_ip_init                                                
00011c65  SemReset                                                             
00011c69  ti_sysbios_knl_Swi_restoreHwi__E                                     
00011cd5  xdc_runtime_Error_print__E                                           
00011d41  xdc_runtime_Memory_alloc__E                                          
00011dad  TcpPrInherit                                                         
00011e19  EK_TM4C1294XL_initI2C                                                
00011e81  NDK_socket                                                           
00011ee9  PBM_open                                                             
00011f51  _RtNodeInsert                                                        
00011fb9  __TI_decompress_lzss                                                 
00012089  xdc_runtime_Core_deleteObject__I                                     
000120f1  CfgFree                                                              
00012155  GPIO_hwiIntFxn                                                       
000121b9  PBMQ_enq                                                             
0001221d  SockSpawnAbort                                                       
00012281  frexp                                                                
00012281  frexpl                                                               
000122e5  llTimerTick                                                          
00012349  ti_sysbios_family_arm_lm4_Timer_Module_startup__E                    
000123ad  ti_sysbios_family_arm_m3_Hwi_create                                  
00012411  ti_sysbios_family_arm_m3_Hwi_dispatchC__I                            
00012475  Ssock_getSocket                                                      
00012479  ti_sysbios_knl_Semaphore_post__E                                     
00012605  SBNew                                                                
00012669  CfgGetEntryCnt                                                       
000126c9  FdWaitEvent                                                          
00012729  NIMUUnregister                                                       
00012789  NodeFind                                                             
000127e9  RTCMsg                                                               
00012849  TcpChecksum                                                          
000128a9  dhcpBuildOptions                                                     
00012909  ti_ndk_config_Global_serviceReport                                   
00012969  RtRemove                                                             
00012a25  VLANReceivePacket                                                    
00012a85  CfgSetExecuteOrder                                                   
00012b99  paj7620ReadReg                                                       
00012bf5  ti_sysbios_knl_Swi_create                                            
00012c51  ti_sysbios_knl_Swi_run__I                                            
00012cad  TaskSelf                                                             
00012cb1  ti_sysbios_knl_Swi_schedule__I                                       
00012d0d  ti_sysbios_knl_Task_create                                           
00012d69  ti_sysbios_knl_Task_unblockI__E                                      
00012dc5  xdc_runtime_Text_putLab__E                                           
00012e21  RawEthSockCheck                                                      
00012e7b  RtRedirect                                                           
00012ed5  TcpValidateMetrics                                                   
00012f2f  dhcpBuildDecline                                                     
00012f89  mmCopy                                                               
00012fe3  ti_ndk_config_tcp_init                                               
0001303d  BindFree                                                             
00013095  _c_int00                                                             
000130ed  EMACPHYConfigSet                                                     
00013145  HOSTwrite                                                            
000131f5  SemCreate                                                            
0001324d  paj7620SelectBank                                                    
000132a5  ti_sysbios_family_arm_m3_Hwi_construct                               
000132fd  ti_sysbios_family_arm_m3_Hwi_initStacks__E                           
00013355  GPIOIntTypeSet                                                       
00013459  CfgEntryDeRef                                                        
000134ad  HTTPCli_sendField                                                    
00013501  IGMPLeave                                                            
00013555  RawEthSockPcbAttach                                                  
000135a9  SNTP_setServers                                                      
000135fd  SockCleanPcb                                                         
00013651  TcpTimeoutPersist                                                    
000136a5  __TI_ltoa                                                            
0001374d  TaskSetPri                                                           
00013751  ti_sysbios_family_arm_lm4_Timer_initDevice__I                        
000137a5  _llSerialInit                                                        
000137a9  ti_sysbios_knl_Swi_Instance_init__E                                  
000137fd  xdc_runtime_Assert_raise__I                                          
00013851  DNSReplyFree                                                         
000138a3  TcpPrDetach                                                          
00013949  GPIO_setCallback                                                     
00013999  GPIO_write                                                           
000139e9  NDK_bind                                                             
00013a39  NDK_connect                                                          
00013ad9  SysCtlPeripheralReset                                                
00013b79  ti_sysbios_family_arm_m3_Hwi_Module_startup__E                       
00013bc9  ti_sysbios_knl_Clock_Instance_init__E                                
00013c19  xdc_runtime_Startup_exec__E                                          
00013c69  xdc_runtime_Text_visitRope2__I                                       
00013cb9  NodeDeRef                                                            
00013da5  NtAddNetwork                                                         
00013df1  SockValidateRoute                                                    
00013e3d  atoi                                                                 
00013e89  copy_in                                                              
00013ed5  snprintf                                                             
00013f21  ti_sysbios_heaps_HeapMem_getStats__E                                 
00013f6d  C$$EXIT                                                              
00013f6d  abort                                                                
00013f6d  xdc_runtime_System_abortStd__E                                       
00013f6d  xdc_runtime_System_exitStd__E                                        
00013f71  ti_sysbios_knl_Swi_runLoop__I                                        
00013fbd  list_get_head                                                        
00013fc1  ti_sysbios_knl_Task_allBlockedFunction__I                            
00014057  SockDisconnect                                                       
000140a1  TimerNew                                                             
000140ed  main                                                                 
00014137  CfgNew                                                               
00014181  GPIOPinConfigure                                                     
000141c9  I2CMasterInitExpClk                                                  
00014211  LLIMsg                                                               
00014259  NodeWalk                                                             
000142a1  RawEthSockPcbDetach                                                  
000142e9  SockPcbResolveChain                                                  
00014331  TcpDrop                                                              
00014379  _LLIExpListInsert                                                    
000143c1  _RtExpListInsert                                                     
00014409  fdint_lockfd                                                         
00014451  __aeabi_d2iz                                                         
00014499  ti_sysbios_family_arm_lm4_Timer_enableTimers__I                      
000144e1  ti_sysbios_family_arm_m3_Hwi_disableInterrupt__E                     
000144e1  ti_sysbios_hal_Hwi_HwiProxy_disableInterrupt__E                      
000144e1  ti_sysbios_hal_Hwi_disableInterrupt__E                               
00014529  ti_sysbios_family_arm_m3_Hwi_enableInterrupt__E                      
00014529  ti_sysbios_hal_Hwi_HwiProxy_enableInterrupt__E                       
00014529  ti_sysbios_hal_Hwi_enableInterrupt__E                                
00014571  ti_sysbios_family_arm_m3_Hwi_excReserved__I                          
000145b9  ti_sysbios_knl_Task_deleteTerminatedTasksFunc__I                     
00014601  NtIfIdx2Ip                                                           
00014647  RawEthSockSend                                                       
0001468d  TcpPrCtlError                                                        
000146d3  mmZeroInit                                                           
00014719  xdc_runtime_Core_assignParams__I                                     
000147a5  ICMPChecksum                                                         
000147e9  IPReasmFree                                                          
0001482d  LLIGetValidTime                                                      
00014871  RouteMsg                                                             
000148b5  RtWalkEnd                                                            
000148f9  SockPcbDetach                                                        
00014981  llTimerGetTime                                                       
000149c5  list_get_next                                                        
000149c9  ti_sysbios_family_arm_lm4_Timer_isrStub__E                           
00014a11  ti_sysbios_family_arm_m3_Hwi_getStackInfo__E                         
00014a11  ti_sysbios_hal_Hwi_HwiProxy_getStackInfo__E                          
00014a11  ti_sysbios_hal_Hwi_getStackInfo__E                                   
00014a55  ti_sysbios_BIOS_RtsGateProxy_enter__E                                
00014a59  ti_sysbios_knl_Swi_post__E                                           
00014a9d  xdc_runtime_Error_setX__E                                            
00014ae1  xdc_runtime_SysMin_flush__E                                          
00014ae1  xdc_runtime_System_SupportProxy_flush__E                             
00014ae1  xdc_runtime_System_flush__E                                          
00014b25  xdc_runtime_Text_xprintf__I                                          
00014b69  TcpPrSendOOB                                                         
00014bab  fdCloseSession                                                       
00014bed  DNSBuildRequest                                                      
00014c2d  HTTPCli_readResponseBody                                             
00014c6d  LLIValidateRoute                                                     
00014cad  PBM_copy                                                             
00014ced  SockPcbRtChange                                                      
00014d2d  TcpPrSend                                                            
00014dad  __aeabi_uidiv                                                        
00014dad  __aeabi_uidivmod                                                     
00014ded  sprintf                                                              
00014e2d  strtok                                                               
00014ead  ti_sysbios_BIOS_RtsGateProxy_leave__E                                
00014eb1  ti_sysbios_family_arm_lm4_Timer_startup__E                           
00014eb1  ti_sysbios_knl_Clock_TimerProxy_startup__E                           
00014ef1  ti_sysbios_heaps_HeapMem_Instance_init__E                            
00014f31  DHCPClose                                                            
00014faf  TaskCreate                                                           
00014fed  TcpPrDisconnect                                                      
00015069  fdint_unlockfd                                                       
000150a7  CfgEntryGetData                                                      
000150e3  EMACIntDisable                                                       
0001515d  RtWalkBegin                                                          
00015199  TcpPrConnect                                                         
000151d5  TcpSetPersist                                                        
0001524d  _RtNodeRemove                                                        
00015289  _llTimerInit                                                         
000152c5  strncasecmp                                                          
00015301  ti_sysbios_family_arm_lm4_Seconds_set__E                             
00015301  ti_sysbios_hal_Seconds_SecondsProxy_set__E                           
00015301  ti_sysbios_hal_Seconds_set__E                                        
0001533d  ti_sysbios_family_arm_lm4_Timer_masterEnable__I                      
00015341  ti_sysbios_family_arm_m3_Hwi_excSvCall__I                            
0001537d  ti_sysbios_family_arm_m3_Hwi_delete                                  
00015381  ti_sysbios_heaps_HeapMem_init__I                                     
000153bd  ti_sysbios_family_arm_m3_Hwi_destruct                                
000153c1  ti_sysbios_knl_Swi_restore__E                                        
000153fd  EMACIntEnable                                                        
00015471  EMACConfigGet                                                        
000154a9  I2C_init                                                             
000154e1  IPReasmTimeout                                                       
00015519  NodeGetRt                                                            
00015551  SysCtlPeripheralReady                                                
00015589  TcpClose                                                             
000155c1  TimerHSTick                                                          
000155f9  __TI_writemsg                                                        
00015627  C$$IO$$                                                              
00015631  dhcpBuildDiscover                                                    
00015669  dhcpOptionsClear                                                     
000156a1  fdint_waitevent                                                      
000156d9  __aeabi_f2d                                                          
00015711  ti_sysbios_family_arm_m3_Hwi_excNoIsr__I                             
00015749  ti_sysbios_knl_Clock_create                                          
00015781  ti_sysbios_knl_Task_processVitalTaskFlag__I                          
000157b9  xdc_runtime_SysMin_putch__E                                          
000157b9  xdc_runtime_System_SupportProxy_putch__E                             
000157f1  xdc_runtime_System_atexit__E                                         
00015829  I2CTiva_close                                                        
0001585f  IPChecksum                                                           
00015895  Ssock_recv                                                           
000158cb  strncpy                                                              
00015901  printError                                                           
00015939  CfgSetService                                                        
0001596d  EMACConfigSet                                                        
000159a1  EMACIntClear                                                         
000159d5  EMACSnow_emacPoll                                                    
00015a09  EMACSnow_isLinkUp                                                    
00015a3d  EMAC_init                                                            
00015a71  ExecClose                                                            
00015aa5  NIMUFindByName                                                       
00015ad9  NIMUInit                                                             
00015b0d  RawEthSockNotify                                                     
00015b41  SockPrCtlError                                                       
00015b75  SysCtlPeripheralEnable                                               
00015ba9  __TI_readmsg                                                         
00015c11  stricmp                                                              
00015c45  strstr                                                               
00015c79  ti_sysbios_family_arm_m3_Hwi_Instance_finalize__E                    
00015cad  ti_sysbios_family_arm_m3_TaskSupport_Module__startupDone__S          
00015cad  ti_sysbios_knl_Task_SupportProxy_Module__startupDone__S              
00015cb1  ti_sysbios_family_arm_m3_Hwi_excNmi__I                               
00015ce5  ti_sysbios_heaps_HeapMem_Module_GateProxy_enter__E                   
00015ce9  ti_sysbios_hal_Hwi_checkStack                                        
00015d1d  ti_sysbios_knl_Semaphore_create                                      
00015d51  xdc_runtime_Core_assignLabel__I                                      
00015d85  xdc_runtime_Text_printVisFxn__I                                      
00015db9  CfgGetImmediate                                                      
00015deb  PipeCheck                                                            
00015e1d  RtDeRef                                                              
00015e4f  RtSetFailure                                                         
00015e81  SBFlush                                                              
00015eb3  SBSetMax                                                             
00015ee5  SockIntAbort                                                         
00015f7b  EMACTxDMADescriptorListSet                                           
00015f81  ti_sysbios_hal_Hwi_initStack                                         
00015fb3  GPIOIntClear                                                         
00015fb9  ti_sysbios_knl_Event_pendTimeout__I                                  
00015feb  GPIOPinWrite                                                         
00015ff1  ti_sysbios_knl_Semaphore_pendTimeout__I                              
00016023  EMACAddrSet                                                          
00016085  I2C_open                                                             
000160b5  NS_PreBoot                                                           
000160e5  SockBind                                                             
00016145  dhcpPacketSend                                                       
00016175  list_remove_node                                                     
000161d5  ti_sysbios_BIOS_atExitFunc__I                                        
00016205  ti_sysbios_heaps_HeapMem_Module_GateProxy_leave__E                   
00016209  ti_sysbios_family_arm_lm4_Timer_stop__E                              
00016239  ti_sysbios_family_arm_m3_TaskSupport_start__E                        
00016239  ti_sysbios_knl_Task_SupportProxy_start__E                            
00016269  ti_sysbios_gates_GateHwi_Object__create__S                           
00016299  ti_sysbios_gates_GateMutex_Object__create__S                         
000162c9  ti_sysbios_gates_GateMutex_enter__E                                  
000162f9  ti_sysbios_heaps_HeapMem_Object__create__S                           
00016329  ti_sysbios_knl_Event_create                                          
00016359  ti_sysbios_knl_Semaphore_construct                                   
00016389  xdc_runtime_SysMin_abort__E                                          
00016389  xdc_runtime_System_SupportProxy_abort__E                             
000163b9  xdc_runtime_System_processAtExit__E                                  
000163e9  SBFree                                                               
00016417  ff_memalloc                                                          
00016417  malloc                                                               
00016445  __aeabi_i2d                                                          
00016473  strcasecmp                                                           
000164a1  EMACIntStatus                                                        
000164cd  FdSignalEvent                                                        
000164f9  IGMPTestGroup                                                        
00016525  NDK_hookCreate                                                       
0001657d  NIMUPacketServiceCheck                                               
000165a9  PipeClose                                                            
000165d5  SNTP_forceTimeSync                                                   
00016601  SockPcbAttach                                                        
0001662d  _LLIExpListRemove                                                    
00016659  _LLITimeoutFlush                                                     
00016685  _RtExpListRemove                                                     
000166b1  fdint_setevent                                                       
00016709  strncmp                                                              
00016735  ti_sysbios_knl_Clock_doTick__I                                       
00016761  ti_sysbios_knl_Queue_construct                                       
0001678d  ti_sysbios_knl_Clock_TimerProxy_getMaxTicks__E                       
00016791  ti_sysbios_knl_Task_restore__E                                       
000167bd  xdc_runtime_Text_cordText__E                                         
000167e9  GPIODirModeSet                                                       
00016813  PBMQ_deq                                                             
000168bb  strspn                                                               
000168e5  xdc_runtime_System_putchar__I                                        
00016911  BindFindByNet                                                        
00016939  LLIFree                                                              
00016961  NC_SystemClose                                                       
00016989  NIMUCreatePacket                                                     
000169b1  NIMUPacketService                                                    
00016a51  VLANInit                                                             
00016a79  dhcpPacketReceive                                                    
00016ac9  ti_sysbios_knl_Clock_addI__E                                         
00016af1  ti_sysbios_knl_Swi_Module_startup__E                                 
00016b19  CfgEntryInfo                                                         
00016b3f  EMACPHYRead                                                          
00016b65  EMACPHYWrite                                                         
00016b8b  RawEthSockClose                                                      
00016bb1  ti_sysbios_family_arm_m3_Hwi_pendSV__I                               
00016bd5  ti_sysbios_family_arm_m3_Hwi_return                                  
00016bd7  xdc_runtime_System_avprintf__E                                       
00016bfd  BindFindByHost                                                       
00016c21  BindGetIFByDBCast                                                    
00016c45  EMACSnow_pkt_service                                                 
00016c8d  ExecTimer                                                            
00016cb1  HTTPCli_disconnect                                                   
00016cd5  NIMUFindByIndex                                                      
00016cf9  RTCAddHook                                                           
00016d1d  RawEthSockPcbFind                                                    
00016d65  RtSetTimeout                                                         
00016d89  SockPcbCleanup                                                       
00016dad  TcpTimeoutWait2                                                      
00016e19  strcspn                                                              
00016e3d  ti_sysbios_BIOS_errorRaiseHook__I                                    
00016e61  ti_sysbios_BIOS_registerRTSLock__I                                   
00016e85  ti_sysbios_BIOS_removeRTSLock__I                                     
00016ea9  ti_sysbios_BIOS_startFunc__I                                         
00016ecd  ti_sysbios_BIOS_RtsGateProxy_Object__delete__S                       
00016ecd  ti_sysbios_gates_GateMutex_Object__delete__S                         
00016ecd  ti_sysbios_heaps_HeapMem_Module_GateProxy_Object__delete__S          
00016ef1  ti_sysbios_knl_Clock_Module_startup__E                               
00016f15  ti_sysbios_knl_Event_delete                                          
00016f19  ti_sysbios_knl_Semaphore_Instance_init__E                            
00016f3d  ti_sysbios_knl_Semaphore_Object__delete__S                           
00016f61  ti_sysbios_knl_Task_restoreHwi__E                                    
00016f85  xdc_runtime_System_vprintf__E                                        
00016fa9  CfgEntryRef                                                          
00016fed  ti_sysbios_knl_Queue_destruct                                        
00016ff1  ti_sysbios_family_arm_lm4_Timer_write__I                             
00017013  xdc_runtime_SysMin_output__I                                         
00017035  NC_BootComplete                                                      
00017075  RTCRemoveHook                                                        
00017095  TcpTimeoutRemove                                                     
000170d5  ti_sysbios_BIOS_rtsLock__I                                           
000170f5  ti_sysbios_family_arm_m3_Hwi_Object__delete__S                       
000170f5  ti_sysbios_hal_Hwi_HwiProxy_Object__delete__S                        
00017115  ti_sysbios_family_arm_m3_Hwi_excHandlerAsm__I                        
00017135  ti_sysbios_knl_Semaphore_delete                                      
00017139  ti_sysbios_family_arm_m3_Hwi_excHandler__I                           
00017159  ti_sysbios_gates_GateHwi_Object__delete__S                           
00017159  xdc_runtime_Main_Module_GateProxy_Object__delete__S                  
00017159  xdc_runtime_System_Module_GateProxy_Object__delete__S                
00017179  ti_sysbios_heaps_HeapMem_Object__delete__S                           
00017179  xdc_runtime_Memory_HeapProxy_Object__delete__S                       
00017199  ti_sysbios_knl_Event_Object__delete__S                               
000171b9  ti_sysbios_knl_Idle_run__E                                           
000171d9  ti_sysbios_knl_Semaphore_Object__destruct__S                         
000171f9  ti_sysbios_knl_Swi_Object__delete__S                                 
00017219  ti_sysbios_knl_Task_Object__delete__S                                
00017239  xdc_runtime_Registry_findById__E                                     
00017259  xdc_runtime_SysMin_Module_startup__E                                 
00017279  fdError                                                              
00017297  list_remove                                                          
000172d3  strcat                                                               
000172f1  ti_sysbios_family_xxx_Hwi_switchAndRunFunc                           
00017311  BindFindByIF                                                         
00017349  NDK_sprintf                                                          
00017365  NIMUAddHeader                                                        
00017381  SockPrDetach                                                         
0001739d  Ssock_destruct                                                       
000173b9  TaskDestroy                                                          
000173f1  memccpy                                                              
0001740d  ti_ndk_config_global_taskCreateHook                                  
00017429  ti_sysbios_family_arm_lm4_Seconds_get__E                             
00017429  ti_sysbios_hal_Seconds_SecondsProxy_get__E                           
00017429  ti_sysbios_hal_Seconds_get__E                                        
00017445  ti_sysbios_family_arm_m3_Hwi_Object__destruct__S                     
00017461  ti_sysbios_gates_GateMutex_Instance_init__E                          
0001747d  ti_sysbios_knl_Queue_Object__destruct__S                             
00017499  ti_sysbios_knl_Queue_put__E                                          
000174b5  ti_sysbios_knl_Semaphore_destruct                                    
000174b9  ti_sysbios_knl_Task_enter__I                                         
000174d5  xdc_runtime_Error_raiseX__E                                          
000174f1  xdc_runtime_Memory_valloc__E                                         
0001750d  xdc_runtime_SysMin_exit__E                                           
0001750d  xdc_runtime_System_SupportProxy_exit__E                              
00017529  xdc_runtime_System_abort__E                                          
00017545  BindGetIP                                                            
0001755f  SockSetOOBMark                                                       
00017579  copysign                                                             
00017579  copysignl                                                            
00017593  fdint_getfdt                                                         
000175ad  ff_memfree                                                           
000175ad  free                                                                 
000175ad  mem_Free                                                             
000175c7  ti_sysbios_family_arm_m3_Hwi_Handle__label__S                        
000175c7  ti_sysbios_hal_Hwi_HwiProxy_Handle__label__S                         
000175e1  ti_sysbios_gates_GateHwi_Handle__label__S                            
000175e1  xdc_runtime_Main_Module_GateProxy_Handle__label__S                   
000175e1  xdc_runtime_System_Module_GateProxy_Handle__label__S                 
000175fb  ti_sysbios_BIOS_RtsGateProxy_Handle__label__S                        
000175fb  ti_sysbios_gates_GateMutex_Handle__label__S                          
000175fb  ti_sysbios_heaps_HeapMem_Module_GateProxy_Handle__label__S           
00017615  ti_sysbios_heaps_HeapMem_Handle__label__S                            
00017615  xdc_runtime_Memory_HeapProxy_Handle__label__S                        
0001762f  ti_sysbios_knl_Swi_Handle__label__S                                  
00017649  ti_sysbios_knl_Task_Handle__label__S                                 
00017663  I2CMasterIntDisable                                                  
00017669  ti_sysbios_knl_Task_sleepTimeout__I                                  
00017683  xdc_runtime_System_aprintf__E                                        
0001769d  xdc_runtime_System_printf__E                                         
000176b9  EMACSnow_emacSend                                                    
000176d1  IPRtChange                                                           
000176e9  RawEthSockPcbCleanup                                                 
000177d9  TcpTimeoutAdd                                                        
000177f1  _args_main                                                           
00017839  dhcpSocketClose                                                      
00017851  fdint_clearevent                                                     
00017869  freeaddrinfo                                                         
00017881  list_add                                                             
00017899  strcmp                                                               
000178b1  ti_sysbios_BIOS_rtsUnlock__I                                         
000178c9  ti_sysbios_family_arm_lm4_Timer_Module__startupDone__F               
000178c9  ti_sysbios_family_arm_lm4_Timer_Module__startupDone__S               
000178c9  ti_sysbios_knl_Clock_TimerProxy_Module__startupDone__S               
000178e1  ti_sysbios_family_arm_m3_Hwi_Module__startupDone__F                  
000178e1  ti_sysbios_family_arm_m3_Hwi_Module__startupDone__S                  
000178e1  ti_sysbios_hal_Hwi_HwiProxy_Module__startupDone__S                   
000178f9  ti_sysbios_family_arm_m3_TaskSupport_swap__E                         
000178f9  ti_sysbios_knl_Task_SupportProxy_swap__E                             
00017905  ti_sysbios_knl_Task_swapReturn                                       
00017911  ti_sysbios_gates_GateMutex_leave__E                                  
00017929  time                                                                 
00017941  xdc_runtime_Error_check__E                                           
00017959  xdc_runtime_System_exit__E                                           
00017971  xdc_runtime_Text_ropeText__E                                         
00017989  EMACReset                                                            
0001799f  EMACRxEnable                                                         
000179b5  EMACTxEnable                                                         
000179cb  HTTPCli_destruct                                                     
000179e1  HTTPCli_readRawResponseBody                                          
000179f7  I2CMasterErr                                                         
00017a0d  fdint_freefdt                                                        
00017a23  strchr                                                               
00017a39  ti_sysbios_BIOS_exitFunc__I                                          
00017a7b  xdc_runtime_System_vsprintf__E                                       
00017a91  BindIPHost2IF                                                        
00017aa5  FlashUserGet                                                         
00017ab9  HTTPCli_getResponseStatus                                            
00017acd  NC_NetStop                                                           
00017ae1  NDK_hookExit                                                         
00017af5  NIMUSendPacket                                                       
00017b09  NtRemoveNetwork                                                      
00017b1d  RawEthSockPcbInit                                                    
00017b31  Ssock_construct                                                      
00017b45  TimerFree                                                            
00017b81  strcpy                                                               
00017b95  strlen                                                               
00017ba9  ti_ndk_config_global_taskExitHook                                    
00017bbd  ti_sysbios_family_arm_m3_Hwi_Object__get__S                          
00017bd1  ti_sysbios_family_arm_m3_Hwi_switchFromBootStack__E                  
00017bd1  ti_sysbios_hal_Hwi_HwiProxy_switchFromBootStack__E                   
00017bd1  ti_sysbios_hal_Hwi_switchFromBootStack__E                            
00017be5  ti_sysbios_heaps_HeapMem_Object__get__S                              
00017bf9  ti_sysbios_knl_Event_Instance_init__E                                
00017c0d  ti_sysbios_knl_Swi_Object__get__S                                    
00017c21  ti_sysbios_knl_Task_Object__first__S                                 
00017c35  ti_sysbios_knl_Task_Object__next__S                                  
00017c49  timeUpdateHook                                                       
00017c5d  GPIOPinTypeEthernetLED                                               
00017c6f  GPIOPinTypeI2C                                                       
00017c81  GPIOPinTypeI2CSCL                                                    
00017c93  SockPrAttach                                                         
00017ca5  SockSetOOBData                                                       
00017cb7  atof                                                                 
00017cc9  inet_addr                                                            
00017cdb  I2CMasterIntEnable                                                   
00017ce1  ti_sysbios_hal_Hwi_Module_startup__E                                 
00017cf3  I2CTiva_control                                                      
00017cf9  ti_sysbios_knl_Semaphore_reset__E                                    
00017d0b  wcslen                                                               
00017d1d  xdc_runtime_Startup_exec__I                                          
00017d31  ti_catalog_arm_cortexm4_tiva_ce_Boot_init__I                         
00017d41  BindIF2IPHost                                                        
00017d51  BindIFNet2IPHost                                                     
00017d61  EMACFrameFilterSet                                                   
00017d71  ExecHRef                                                             
00017d81  I2C_Params_init                                                      
00017d91  NC_IPUpdate                                                          
00017da1  NIMUGetRsvdSizeInfo                                                  
00017db1  ti_sysbios_BIOS_exit__E                                              
00017dc1  ti_sysbios_BIOS_getCpuFreq__E                                        
00017dc1  ti_sysbios_family_arm_lm4_TimestampProvider_getFreq__E               
00017dc1  xdc_runtime_Timestamp_SupportProxy_getFreq__E                        
00017dc1  xdc_runtime_Timestamp_getFreq__E                                     
00017dd1  ti_sysbios_BIOS_setThreadType__E                                     
00017de1  osi_start                                                            
00017de1  ti_sysbios_BIOS_start__E                                             
00017df1  ti_sysbios_family_arm_lm4_TimestampProvider_rolloverFunc__E          
00017e01  ti_sysbios_family_arm_m3_TaskSupport_glue                            
00017e11  ti_sysbios_gates_GateMutex_Instance_finalize__E                      
00017e21  ti_sysbios_knl_Semaphore_Instance_finalize__E                        
00017e31  ti_sysbios_knl_Swi_disable__E                                        
00017e41  ti_sysbios_knl_Task_Object__get__S                                   
00017e51  osi_TaskDisable                                                      
00017e51  ti_sysbios_knl_Task_disable__E                                       
00017e61  xdc_runtime_Gate_leaveSystem__E                                      
00017e71  xdc_runtime_Memory_free__E                                           
00017e81  xdc_runtime_SysMin_ready__E                                          
00017e81  xdc_runtime_System_SupportProxy_ready__E                             
00017e91  xdc_runtime_System_vsnprintf__E                                      
00017ea1  xdc_runtime_Text_visitRope__I                                        
00017eb1  EMACSnow_emacioctl                                                   
00017ebf  ExecLowResource                                                      
00017ecd  GPIOIntStatus                                                        
00017edb  __TI_decompress_none                                                 
00017ef9  ti_sysbios_knl_Idle_loop__E                                          
00017f09  ti_sysbios_knl_Queue_empty__E                                        
00017f19  BindGetFirst                                                         
00017f25  CfgSetDefault                                                        
00017f31  EMACSnow_init                                                        
00017f3d  NDK_hookInit                                                         
00017f49  NIMUSetRsvdSizeInfo                                                  
00017f55  NotifyLowResource                                                    
00017f61  PBM_close                                                            
00017f6d  SemDelete                                                            
00017f79  __ctime32                                                            
00017f79  ctime                                                                
00017f85  _llTimerShutdown                                                     
00017f91  _register_lock                                                       
00017f9d  _register_unlock                                                     
00017fb5  __TI_zero_init                                                       
00017fc1  llTimerGetStartTime                                                  
00017fcd  ti_sysbios_knl_Swi_delete                                            
00017fd1  ti_sysbios_BIOS_getThreadType__E                                     
00017fdd  ti_sysbios_knl_Task_delete                                           
00017fe1  ti_sysbios_family_arm_lm4_Timer_getMaxTicks__E                       
00017fed  xdc_runtime_Error_getMsg__E                                          
00017ff1  ti_sysbios_family_arm_lm4_TimestampProvider_startTimer__E            
00017ffd  ti_sysbios_family_arm_m3_Hwi_Params__init__S                         
00017ffd  ti_sysbios_hal_Hwi_HwiProxy_Params__init__S                          
00018009  OEMSysCritOn                                                         
00018009  ti_sysbios_family_arm_m3_Hwi_disableFxn__E                           
00018009  ti_sysbios_hal_Hwi_HwiProxy_disable__E                               
00018015  xdc_runtime_Error_getSite__E                                         
00018019  ti_sysbios_family_arm_m3_TaskSupport_checkStack__E                   
00018019  ti_sysbios_knl_Task_SupportProxy_checkStack__E                       
00018025  xdc_runtime_System_Module_GateProxy_enter__E                         
00018029  ti_sysbios_family_arm_m3_TaskSupport_getStackAlignment__E            
00018029  ti_sysbios_knl_Task_SupportProxy_getStackAlignment__E                
00018035  xdc_runtime_System_Module_GateProxy_leave__E                         
00018039  ti_sysbios_gates_GateHwi_enter__E                                    
00018045  ti_sysbios_knl_Clock_Params__init__S                                 
00018051  ti_sysbios_knl_Clock_getTicks__E                                     
0001805d  ti_sysbios_knl_Queue_Object__get__S                                  
00018069  ti_sysbios_knl_Semaphore_Params__init__S                             
00018075  ti_sysbios_knl_Task_Params__init__S                                  
00018081  ti_sysbios_knl_Task_getIdleTask__E                                   
0001808d  xdc_runtime_System_aprintf_va__F                                     
00018091  ti_sysbios_knl_Task_self__E                                          
0001809d  xdc_runtime_Error_init__E                                            
000180a9  xdc_runtime_Gate_enterSystem__E                                      
000180b5  xdc_runtime_Memory_calloc__E                                         
000180c1  xdc_runtime_Memory_getMaxDefaultTypeAlign__E                         
000180cd  HTTPCli_setRequestFields                                             
000180d7  HTTPCli_setResponseFields                                            
000180e1  I2CMasterDisable                                                     
000180eb  I2CMasterEnable                                                      
000180f5  I2CTiva_init                                                         
000180ff  I2C_transfer                                                         
00018113  fdint_signalevent                                                    
0001811d  fdint_signaltimeout                                                  
00018127  xdc_runtime_Memory_HeapProxy_alloc__E                                
00018131  xdc_runtime_Memory_HeapProxy_free__E                                 
0001813b  EK_TM4C1294XL_initGPIO                                               
00018143  EMACTxDMAPollDemand                                                  
0001814b  I2CMasterIntClear                                                    
00018153  I2CMasterSlaveAddrSet                                                
0001816b  TaskBlock                                                            
00018175  __aeabi_errno_addr                                                   
0001817d  ti_sysbios_family_arm_lm4_Timer_masterDisable__I                     
00018185  xdc_runtime_System_printf_va__F                                      
00018189  ti_sysbios_family_arm_m3_Hwi_doSwiRestore__I                         
00018191  ti_sysbios_family_arm_m3_Hwi_startup__E                              
00018191  ti_sysbios_hal_Hwi_HwiProxy_startup__E                               
00018191  ti_sysbios_hal_Hwi_startup__E                                        
00018199  ti_sysbios_knl_Task_getHookContext__E                                
000181a1  ti_sysbios_knl_Task_setHookContext__E                                
000181a9  SysCtlDelay                                                          
000181af  TcpPrRecv                                                            
000181b5  __xdc__init                                                          
000181c1  ti_sysbios_family_arm_lm4_TimestampProvider_Module_startup__E        
000181c9  ti_sysbios_family_arm_m3_Hwi_doTaskRestore__I                        
000181d1  OEMSysCritOff                                                        
000181d1  ti_sysbios_family_arm_m3_Hwi_restoreFxn__E                           
000181d1  ti_sysbios_hal_Hwi_HwiProxy_restore__E                               
000181d9  ti_sysbios_gates_GateHwi_leave__E                                    
000181e1  ti_sysbios_heaps_HeapMem_isBlocking__E                               
000181e9  ti_sysbios_knl_Queue_Instance_init__E                                
000181f1  ti_sysbios_knl_Swi_startup__E                                        
000181f7  xdc_runtime_System_Module_startup__E                                 
00018201  ti_sysbios_gates_GateHwi_query__E                                    
00018201  xdc_runtime_Main_Module_GateProxy_query__E                           
00018201  xdc_runtime_System_Module_GateProxy_query__E                         
00018209  ti_sysbios_BIOS_RtsGateProxy_query__E                                
00018209  ti_sysbios_gates_GateMutex_query__E                                  
00018209  ti_sysbios_heaps_HeapMem_Module_GateProxy_query__E                   
00018211  ti_sysbios_knl_Task_startup__E                                       
00018219  ti_sysbios_gates_GateHwi_Instance_init__E                            
00018221  ti_sysbios_knl_Clock_logTick__E                                      
00018229  ti_sysbios_knl_Swi_Instance_finalize__E                              
00018230  xdc_runtime_Text_charTab__A                                          
00019bc6  ti_catalog_arm_cortexm4_tiva_ce_Boot_Module__id__C                   
00019f38  initRegisterArray                                                    
0001a0ee  ti_sysbios_family_arm_m3_Hwi_Module__id__C                           
0001a210  _ctypes_                                                             
0001a312  xdc_runtime_Text_nodeTab__A                                          
0001a3f6  ti_sysbios_hal_Hwi_Module__id__C                                     
0001a4c4  ti_catalog_arm_cortexm4_tiva_ce_Boot_A_mustNotUseEnhancedClockMode__C
0001a740  Code2Err                                                             
0001a8b2  ti_sysbios_heaps_HeapMem_Module__id__C                               
0001a8b4  ti_sysbios_knl_Task_Object__PARAMS__C                                
0001a8f0  ti_ndk_config_Global_rawPageSize                                     
0001a8f4  ti_ndk_config_Global_rawPageCount                                    
0001a8f8  ti_ndk_config_Global_smallest                                        
0001a8fc  ti_ndk_config_Global_largest                                         
0001a900  ti_ndk_config_Global_numFrameBuf                                     
0001a904  ti_ndk_config_Global_sizeFrameBuf                                    
0001a908  semTcp                                                               
0001a90c  semRight                                                             
0001a910  semLeft                                                              
0001a914  semHttp                                                              
0001a918  getHumTaskHandle                                                     
0001a91c  getTempTaskHandle                                                    
0001a920  paj7620TaskHandle                                                    
0001a954  ti_sysbios_family_arm_m3_Hwi_Object__PARAMS__C                       
0001a984  ti_sysbios_heaps_HeapMem_Module__FXNS__C                             
0001a9ac  ti_sysbios_knl_Swi_Object__PARAMS__C                                 
0001a9d4  I2C_config                                                           
0001a9f8  ti_sysbios_gates_GateHwi_Module__FXNS__C                             
0001aa1c  ti_sysbios_gates_GateMutex_Module__FXNS__C                           
0001aa40  ti_sysbios_heaps_HeapMem_Object__PARAMS__C                           
0001aa64  ti_sysbios_knl_Clock_Object__PARAMS__C                               
0001aa88  ti_sysbios_knl_Semaphore_Object__PARAMS__C                           
0001aaac  xdc_runtime_Startup_sfxnTab__A                                       
0001aaf0  ti_sysbios_family_arm_m3_Hwi_Object__DESC__C                         
0001ab10  ti_sysbios_gates_GateHwi_Object__DESC__C                             
0001ab30  ti_sysbios_gates_GateMutex_Object__DESC__C                           
0001ab50  ti_sysbios_heaps_HeapMem_Object__DESC__C                             
0001ab70  ti_sysbios_knl_Clock_Object__DESC__C                                 
0001ab90  ti_sysbios_knl_Event_Object__DESC__C                                 
0001abb0  ti_sysbios_knl_Queue_Object__DESC__C                                 
0001abd0  ti_sysbios_knl_Semaphore_Object__DESC__C                             
0001abf0  ti_sysbios_knl_Swi_Object__DESC__C                                   
0001ac10  ti_sysbios_knl_Task_Object__DESC__C                                  
0001ac30  I2CTiva_fxnTable                                                     
0001ac64  EMAC_config                                                          
0001ac94  i2cTivaHWAttrs                                                       
0001acac  ti_sysbios_gates_GateHwi_Object__PARAMS__C                           
0001acc4  ti_sysbios_gates_GateMutex_Object__PARAMS__C                         
0001acdc  ti_sysbios_knl_Event_Object__PARAMS__C                               
0001acf4  ti_sysbios_knl_Queue_Object__PARAMS__C                               
0001ad0c  ti_sysbios_knl_Task_hooks__A                                         
0001ad24  GPIOTiva_config                                                      
0001ad38  xdc_runtime_Startup_firstFxns__A                                     
0001ad4c  xdc_runtime_Startup_sfxnRts__A                                       
0001ad5e  ti_sysbios_knl_Task_Module__id__C                                    
0001ad60  I2C_defaultParams                                                    
0001ad70  emacHWAttrs                                                          
0001ad90  EMACSnow_fxnTable                                                    
0001ad98  ti_sysbios_family_arm_m3_Hwi_excHookFuncs__A                         
0001ada0  ti_sysbios_knl_Idle_funcList__A                                      
0001ada8  ti_sysbios_knl_Idle_funcList__C                                      
0001adb0  ti_sysbios_knl_Task_hooks__C                                         
0001adb8  xdc_runtime_Startup_firstFxns__C                                     
0001adc0  xdc_runtime_Startup_lastFxns__C                                      
0001adc8  ti_catalog_arm_cortexm4_tiva_ce_Boot_Module__diagsEnabled__C         
0001adcc  ti_catalog_arm_cortexm4_tiva_ce_Boot_Module__diagsIncluded__C        
0001add0  ti_catalog_arm_cortexm4_tiva_ce_Boot_Module__diagsMask__C            
0001add4  ti_sysbios_family_arm_lm4_Timer_enableFunc__C                        
0001add8  ti_sysbios_family_arm_lm4_Timer_numTimerDevices__C                   
0001addc  ti_sysbios_family_arm_lm4_Timer_startupNeeded__C                     
0001ade0  ti_sysbios_family_arm_m3_Hwi_E_NMI__C                                
0001ade4  ti_sysbios_family_arm_m3_Hwi_E_alreadyDefined__C                     
0001ade8  ti_sysbios_family_arm_m3_Hwi_E_busFault__C                           
0001adec  ti_sysbios_family_arm_m3_Hwi_E_debugMon__C                           
0001adf0  ti_sysbios_family_arm_m3_Hwi_E_hardFault__C                          
0001adf4  ti_sysbios_family_arm_m3_Hwi_E_memFault__C                           
0001adf8  ti_sysbios_family_arm_m3_Hwi_E_noIsr__C                              
0001adfc  ti_sysbios_family_arm_m3_Hwi_E_reserved__C                           
0001ae00  ti_sysbios_family_arm_m3_Hwi_E_svCall__C                             
0001ae04  ti_sysbios_family_arm_m3_Hwi_E_usageFault__C                         
0001ae08  ti_sysbios_family_arm_m3_Hwi_NUM_INTERRUPTS__C                       
0001ae0c  ti_sysbios_family_arm_m3_Hwi_Object__count__C                        
0001ae10  ti_sysbios_family_arm_m3_Hwi_ccr__C                                  
0001ae14  ti_sysbios_family_arm_m3_Hwi_excHandlerFunc__C                       
0001ae18  ti_sysbios_family_arm_m3_Hwi_excHookFuncs__C                         
0001ae1c  ti_sysbios_family_arm_m3_Hwi_nullIsrFunc__C                          
0001ae20  ti_sysbios_family_arm_m3_Hwi_priGroup__C                             
0001ae24  ti_sysbios_family_arm_m3_TaskSupport_stackAlignment__C               
0001ae28  ti_sysbios_gates_GateMutex_Instance_State_sem__O                     
0001ae2c  ti_sysbios_hal_Hwi_E_stackOverflow__C                                
0001ae30  ti_sysbios_heaps_HeapMem_E_memory__C                                 
0001ae34  ti_sysbios_heaps_HeapMem_Module__gateObj__C                          
0001ae38  ti_sysbios_heaps_HeapMem_Object__count__C                            
0001ae3c  ti_sysbios_heaps_HeapMem_reqAlign__C                                 
0001ae40  ti_sysbios_knl_Clock_Module_State_clockQ__O                          
0001ae44  ti_sysbios_knl_Event_Instance_State_pendQ__O                         
0001ae48  ti_sysbios_knl_Semaphore_Instance_State_pendQ__O                     
0001ae4c  ti_sysbios_knl_Swi_Object__count__C                                  
0001ae50  ti_sysbios_knl_Task_E_deleteNotAllowed__C                            
0001ae54  ti_sysbios_knl_Task_E_spOutOfBounds__C                               
0001ae58  ti_sysbios_knl_Task_E_stackOverflow__C                               
0001ae5c  ti_sysbios_knl_Task_Module_State_inactiveQ__O                        
0001ae60  ti_sysbios_knl_Task_Module_State_terminatedQ__O                      
0001ae64  ti_sysbios_knl_Task_Object__count__C                                 
0001ae68  ti_sysbios_knl_Task_Object__heap__C                                  
0001ae6c  ti_sysbios_knl_Task_allBlockedFunc__C                                
0001ae70  ti_sysbios_knl_Task_defaultStackHeap__C                              
0001ae74  ti_sysbios_knl_Task_defaultStackSize__C                              
0001ae78  ti_sysbios_knl_Task_numConstructedTasks__C                           
0001ae7c  xdc_runtime_Assert_E_assertFailed__C                                 
0001ae80  xdc_runtime_Core_A_initializedParams__C                              
0001ae84  xdc_runtime_Core_Module__diagsEnabled__C                             
0001ae88  xdc_runtime_Core_Module__diagsIncluded__C                            
0001ae8c  xdc_runtime_Core_Module__diagsMask__C                                
0001ae90  xdc_runtime_Error_E_memory__C                                        
0001ae94  xdc_runtime_Error_Module__diagsEnabled__C                            
0001ae98  xdc_runtime_Error_Module__diagsIncluded__C                           
0001ae9c  xdc_runtime_Error_Module__diagsMask__C                               
0001aea0  xdc_runtime_Error_Module__loggerFxn8__C                              
0001aea4  xdc_runtime_Error_Module__loggerObj__C                               
0001aea8  xdc_runtime_Error_policyFxn__C                                       
0001aeac  xdc_runtime_Error_raiseHook__C                                       
0001aeb0  xdc_runtime_IGateProvider_Interface__BASE__C                         
0001aeb4  xdc_runtime_IHeap_Interface__BASE__C                                 
0001aeb8  xdc_runtime_IModule_Interface__BASE__C                               
0001aebc  xdc_runtime_Log_L_error__C                                           
0001aec0  xdc_runtime_Main_Module__diagsEnabled__C                             
0001aec4  xdc_runtime_Main_Module__diagsIncluded__C                            
0001aec8  xdc_runtime_Main_Module__diagsMask__C                                
0001aecc  xdc_runtime_Main_Module__loggerFxn4__C                               
0001aed0  xdc_runtime_Main_Module__loggerObj__C                                
0001aed4  xdc_runtime_Memory_defaultHeapInstance__C                            
0001aed8  xdc_runtime_Startup_execImpl__C                                      
0001aedc  xdc_runtime_Startup_lastFxns__A                                      
0001aee0  xdc_runtime_Startup_maxPasses__C                                     
0001aee4  xdc_runtime_Startup_sfxnRts__C                                       
0001aee8  xdc_runtime_Startup_sfxnTab__C                                       
0001aeec  xdc_runtime_SysMin_bufSize__C                                        
0001aef0  xdc_runtime_SysMin_outputFunc__C                                     
0001aef4  xdc_runtime_System_Module__gateObj__C                                
0001aef8  xdc_runtime_System_abortFxn__C                                       
0001aefc  xdc_runtime_System_exitFxn__C                                        
0001af00  xdc_runtime_System_extendFxn__C                                      
0001af04  xdc_runtime_System_maxAtexitHandlers__C                              
0001af08  xdc_runtime_Text_charTab__C                                          
0001af0c  xdc_runtime_Text_nameEmpty__C                                        
0001af10  xdc_runtime_Text_nameStatic__C                                       
0001af14  xdc_runtime_Text_nameUnknown__C                                      
0001af18  xdc_runtime_Text_nodeTab__C                                          
0001af1c  xdc_runtime_Text_visitRopeFxn__C                                     
0001af20  xdc_runtime_Core_Module__id__C                                       
0001af22  xdc_runtime_Error_Module__loggerDefined__C                           
0001af24  xdc_runtime_Error_maxDepth__C                                        
0001af26  xdc_runtime_Main_Module__id__C                                       
0001af28  xdc_runtime_Main_Module__loggerDefined__C                            
0001af2a  xdc_runtime_Memory_Module__id__C                                     
0001af2c  xdc_runtime_SysMin_flushAtExit__C                                    
0001af2e  xdc_runtime_Text_charCnt__C                                          
0001af30  xdc_runtime_Text_isLoaded__C                                         
0001af32  xdc_runtime_Text_registryModsLastId__C                               
0001af34  xdc_runtime_Text_unnamedModsLastId__C                                
0001af36  xdc_runtime_Error_policy__C                                          
0001af38  __TI_static_base__                                                   
0001b450  __TI_Handler_Table_Base                                              
0001b45c  __TI_Handler_Table_Limit                                             
0001b470  __TI_CINIT_Base                                                      
0001b488  __TI_CINIT_Limit                                                     
20000000  __start___llvm_prf_cnts                                              
20000000  __stop___llvm_prf_cnts                                               
20000000  ti_sysbios_family_arm_m3_Hwi_ramVectors                              
20000380  ti_sysbios_heaps_HeapMem_Instance_State_0_buf__A                     
20016380  ti_ndk_config_Global_pit                                             
20016498  ti_ndk_config_Global_pitBuffer                                       
2001dc98  ti_sysbios_knl_Task_Instance_State_0_stack__A                        
2001fc98  ti_sysbios_knl_Task_Instance_State_1_stack__A                        
20021c98  ti_sysbios_knl_Task_Instance_State_2_stack__A                        
20023c98  ti_sysbios_knl_Task_Instance_State_3_stack__A                        
20024298  ti_sysbios_knl_Task_Instance_State_4_stack__A                        
20024a98  ips                                                                  
20024b00  ti_ndk_config_Global_pBufMem                                         
20028700  ti_ndk_config_Global_pHdrMem                                         
200289f8  ti_sysbios_family_arm_m3_Hwi_dispatchTable                           
20028d58  data                                                                 
20028f58  __CIOBUF_                                                            
20029178  i2cTivaObjects                                                       
20029278  msg                                                                  
20029378  tcps                                                                 
20029694  xdc_runtime_SysMin_Module_State_0_outbuf__A                          
20029714  nimu_mcb                                                             
20029778  _ICMPIn                                                              
200297c4  _ICMPOut                                                             
20029850  desc                                                                 
20029890  hum                                                                  
200298d0  temp                                                                 
20029910  ntpServers                                                           
20029940  vlan_mcb                                                             
2002998c  udps                                                                 
200299cc  BlockCount                                                           
200299e8  BlockMax                                                             
20029a04  PageCount                                                            
20029a20  PageMax                                                              
20029a3c  stkEvent                                                             
20029a78  raweths                                                              
20029a88  raws                                                                 
20029a98  PBMQ_free                                                            
20029aa4  tpseudo                                                              
20029ab0  upseudo                                                              
20029ac4  emacObjects                                                          
20029acc  parmbuf                                                              
20029af8  _IGMPInDiscard                                                       
20029afc  _IGMPInQuery                                                         
20029b00  _IGMPInQueryGroup                                                    
20029b04  _IGMPInResponse                                                      
20029b08  _IGMPOutResponse                                                     
20029b0c  g_ulStatus                                                           
20029b20  raweth_pcb                                                           
20029b24  ti_sysbios_knl_Task_Instance_State_0_hookEnv__A                      
20029b28  ti_sysbios_knl_Task_Instance_State_1_hookEnv__A                      
20029b2c  ti_sysbios_knl_Task_Instance_State_2_hookEnv__A                      
20029b30  ti_sysbios_knl_Task_Instance_State_3_hookEnv__A                      
20029b34  ti_sysbios_knl_Task_Instance_State_4_hookEnv__A                      
20029b38  __stack                                                              
2002ab38  __STACK_END                                                          
2002ab38  ti_sysbios_knl_Task_Object__table__V                                 
2002acb4  HTTPStd_VER                                                          
2002acb8  HTTPStd_GET                                                          
2002acbc  HTTPStd_POST                                                         
2002acc0  HTTPStd_HEAD                                                         
2002acc4  HTTPStd_OPTIONS                                                      
2002acc8  HTTPStd_PUT                                                          
2002accc  HTTPStd_DELETE                                                       
2002acd0  HTTPStd_CONNECT                                                      
2002acd4  HTTPStd_PATCH                                                        
2002acd8  HTTPStd_CONTENT_TYPE_APPLET                                          
2002acdc  HTTPStd_CONTENT_TYPE_AU                                              
2002ace0  HTTPStd_CONTENT_TYPE_CSS                                             
2002ace4  HTTPStd_CONTENT_TYPE_DOC                                             
2002ace8  HTTPStd_CONTENT_TYPE_GIF                                             
2002acec  HTTPStd_CONTENT_TYPE_HTML                                            
2002acf0  HTTPStd_CONTENT_TYPE_JPG                                             
2002acf4  HTTPStd_CONTENT_TYPE_MPEG                                            
2002acf8  HTTPStd_CONTENT_TYPE_PDF                                             
2002acfc  HTTPStd_CONTENT_TYPE_WAV                                             
2002ad00  HTTPStd_CONTENT_TYPE_ZIP                                             
2002ad04  HTTPStd_CONTENT_TYPE_PLAIN                                           
2002ad08  HTTPStd_FIELD_NAME_ACCEPT                                            
2002ad0c  HTTPStd_FIELD_NAME_ACCEPT_CHARSET                                    
2002ad10  HTTPStd_FIELD_NAME_ACCEPT_ENCODING                                   
2002ad14  HTTPStd_FIELD_NAME_ACCEPT_LANGUAGE                                   
2002ad18  HTTPStd_FIELD_NAME_ACCEPT_RANGES                                     
2002ad1c  HTTPStd_FIELD_NAME_AGE                                               
2002ad20  HTTPStd_FIELD_NAME_ALLOW                                             
2002ad24  HTTPStd_FIELD_NAME_AUTHORIZATION                                     
2002ad28  HTTPStd_FIELD_NAME_CACHE_CONTROL                                     
2002ad2c  HTTPStd_FIELD_NAME_CONNECTION                                        
2002ad30  HTTPStd_FIELD_NAME_CONTENT_ENCODING                                  
2002ad34  HTTPStd_FIELD_NAME_CONTENT_LANGUAGE                                  
2002ad38  HTTPStd_FIELD_NAME_CONTENT_LENGTH                                    
2002ad3c  HTTPStd_FIELD_NAME_CONTENT_LOCATION                                  
2002ad40  HTTPStd_FIELD_NAME_CONTENT_MD5                                       
2002ad44  HTTPStd_FIELD_NAME_CONTENT_RANGE                                     
2002ad48  HTTPStd_FIELD_NAME_CONTENT_TYPE                                      
2002ad4c  HTTPStd_FIELD_NAME_COOKIE                                            
2002ad50  HTTPStd_FIELD_NAME_DATE                                              
2002ad54  HTTPStd_FIELD_NAME_ETAG                                              
2002ad58  HTTPStd_FIELD_NAME_EXPECT                                            
2002ad5c  HTTPStd_FIELD_NAME_EXPIRES                                           
2002ad60  HTTPStd_FIELD_NAME_FROM                                              
2002ad64  HTTPStd_FIELD_NAME_HOST                                              
2002ad68  HTTPStd_FIELD_NAME_IF_MATCH                                          
2002ad6c  HTTPStd_FIELD_NAME_IF_MODIFIED_SINCE                                 
2002ad70  HTTPStd_FIELD_NAME_IF_NONE_MATCH                                     
2002ad74  HTTPStd_FIELD_NAME_IF_RANGE                                          
2002ad78  HTTPStd_FIELD_NAME_IF_UNMODIFIED_SINCE                               
2002ad7c  HTTPStd_FIELD_NAME_LAST_MODIFIED                                     
2002ad80  HTTPStd_FIELD_NAME_LOCATION                                          
2002ad84  HTTPStd_FIELD_NAME_MAX_FORWARDS                                      
2002ad88  HTTPStd_FIELD_NAME_ORIGIN                                            
2002ad8c  HTTPStd_FIELD_NAME_PRAGMA                                            
2002ad90  HTTPStd_FIELD_NAME_PROXY_AUTHENTICATE                                
2002ad94  HTTPStd_FIELD_NAME_PROXY_AUTHORIZATION                               
2002ad98  HTTPStd_FIELD_NAME_RANGE                                             
2002ad9c  HTTPStd_FIELD_NAME_REFERER                                           
2002ada0  HTTPStd_FIELD_NAME_RETRY_AFTER                                       
2002ada4  HTTPStd_FIELD_NAME_SERVER                                            
2002ada8  HTTPStd_FIELD_NAME_TE                                                
2002adac  HTTPStd_FIELD_NAME_TRAILER                                           
2002adb0  HTTPStd_FIELD_NAME_TRANSFER_ENCODING                                 
2002adb4  HTTPStd_FIELD_NAME_UPGRADE                                           
2002adb8  HTTPStd_FIELD_NAME_USER_AGENT                                        
2002adbc  HTTPStd_FIELD_NAME_VARY                                              
2002adc0  HTTPStd_FIELD_NAME_VIA                                               
2002adc4  HTTPStd_FIELD_NAME_WWW_AUTHENTICATE                                  
2002adc8  HTTPStd_FIELD_NAME_WARNING                                           
2002adcc  HTTPStd_FIELD_NAME_X_FORWARDED_FOR                                   
2002add0  _ipcfg                                                               
2002ae84  ti_sysbios_family_arm_lm4_Timer_Object__table__V                     
2002af04  ti_sysbios_knl_Swi_Module_State_0_readyQ__A                          
2002af84  ti_sysbios_knl_Task_Module_State_0_readyQ__A                         
2002b004  ti_sysbios_knl_Semaphore_Object__table__V                            
2002b0a4  ti_sysbios_knl_Task_Module__state__V                                 
2002b168  ti_sysbios_family_arm_lm4_Timer_Module_State_0_device__A             
2002b1a8  ti_sysbios_gates_GateMutex_Object__table__V                          
2002b214  ti_sysbios_family_arm_m3_Hwi_Module__state__V                        
2002b248  enablePrefetch                                                       
2002b24c  phyCounter                                                           
2002b27a  ti_sysbios_family_arm_m3_Hwi_Module_State_0_excActive__A             
2002b2dc  ti_sysbios_family_arm_m3_Hwi_Object__table__V                        
2002b30c  ti_sysbios_knl_Swi_Object__table__V                                  
2002b33c  ti_sysbios_knl_Clock_Module__state__V                                
2002b368  pstrMsgName                                                          
2002b390  _oscfg                                                               
2002b3d8  PITCount                                                             
2002b3dc  PITUsed                                                              
2002b3e0  PITHigh                                                              
2002b3fc  ti_sysbios_BIOS_Module__state__V                                     
2002b420  ti_sysbios_family_arm_lm4_Timer_Module_State_0_handles__A            
2002b45c  ti_ndk_config_Global_Id2Size                                         
2002b478  ti_sysbios_knl_Swi_Module__state__V                                  
2002b4dc  ti_sysbios_heaps_HeapMem_Object__table__V                            
2002b530  _tz                                                                  
2002b540  gpioPinConfigs                                                       
2002b568  _IGMPForceVersion1                                                   
2002b570  ti_sysbios_family_arm_lm4_Timer_Module__state__V                     
2002b57c  xdc_runtime_SysMin_Module__state__V                                  
2002b594  _lock                                                                
2002b598  _unlock                                                              
2002b59c  NIMUDeviceTable                                                      
2002b5a4  gpioCallbackFunctions                                                
2002b5b0  isRight                                                              
2002b5b4  ti_ndk_config_Global_HostName                                        
2002b5b8  __xdc__init__addr                                                    
2002b5cc  _ICMPInErrors                                                        
2002b5d0  _ICMPOutErrors                                                       
2002b5d4  _IPExecuting                                                         
2002b5ec  tcp_iss                                                              
2002b5f0  ptTimeFirst                                                          
2002b5fc  ti_sysbios_family_arm_lm4_Seconds_Module__state__V                   
2002b604  ti_sysbios_family_arm_lm4_TimestampProvider_Module__state__V         
2002b60c  ti_sysbios_family_arm_m3_Hwi_Module__root__V                         
2002b614  ti_sysbios_gates_GateHwi_Module__root__V                             
2002b61c  ti_sysbios_gates_GateMutex_Module__root__V                           
2002b624  ti_sysbios_heaps_HeapMem_Module__root__V                             
2002b62c  ti_sysbios_knl_Clock_Module__root__V                                 
2002b634  ti_sysbios_knl_Event_Module__root__V                                 
2002b63c  ti_sysbios_knl_Queue_Module__root__V                                 
2002b644  ti_sysbios_knl_Semaphore_Module__root__V                             
2002b64c  ti_sysbios_knl_Swi_Module__root__V                                   
2002b654  ti_sysbios_knl_Task_Module__root__V                                  
2002b65c  xdc_runtime_Registry_Module__state__V                                
2002b664  xdc_runtime_Startup_Module__state__V                                 
2002b66c  xdc_runtime_System_Module_State_0_atexitHandlers__A                  
2002b674  xdc_runtime_System_Module__state__V                                  
2002b67c  macAddress                                                           
2002b68e  xdc_runtime_Error_Module__state__V                                   
2002b6a0  errno                                                                
2002b6a4  main_func_sp                                                         
2002b6b0  _IPReasmPtr                                                          
2002b6c0  ti_sysbios_family_arm_m3_Hwi_Module_State_0_excContext__A            
2002b6c4  ti_sysbios_family_arm_m3_Hwi_Module_State_0_excStack__A              
2002b6c8  ti_sysbios_gates_GateHwi_Object__table__V                            
2002b6cc  ti_sysbios_knl_Task_Module_State_0_idleTask__A                       
2002b6d0  xdc_runtime_Memory_Module__state__V                                  
e000e000  ti_sysbios_family_arm_m3_Hwi_nvic                                    
ffffffff  __TI_pprof_out_hndl                                                  
ffffffff  __TI_prof_data_size                                                  
ffffffff  __TI_prof_data_start                                                 
ffffffff  __binit__                                                            
ffffffff  __c_args__                                                           
ffffffff  binit                                                                
UNDEFED   SHT$$INIT_ARRAY$$Base                                                
UNDEFED   SHT$$INIT_ARRAY$$Limit                                               

[1239 symbols]
